///////////////////////////////////////////////////////////////////////////////
//                                                                            /
// IAR C/C++ Compiler V8.10.3.10338/W32 for 8051        16/Dec/2014  18:18:09 /
// Copyright 2004-2011 IAR Systems AB.                                        /
//                                                                            /
//    Core               =  plain                                             /
//    Code model         =  banked                                            /
//    Data model         =  large                                             /
//    Calling convention =  xdata reentrant                                   /
//    Constant location  =  data_rom                                          /
//    Dptr setup         =  1,16                                              /
//    Source file        =  E:\Zigbee-timer\Texas Instruments\Projects\zstack /
//                          \Samples\MyfirstAPP\Source\Basic.c                /
//    Command line       =  -f "E:\Zigbee-timer\Texas                         /
//                          Instruments\Projects\zstack\Samples\MyfirstAPP\CC /
//                          2530DB\..\..\..\Tools\CC2530DB\f8wEndev.cfg"      /
//                          (-DCPU32MHZ -DROOT=__near_func -DBLINK_LEDS) -f   /
//                          "E:\Zigbee-timer\Texas Instruments\Projects\zstac /
//                          k\Samples\MyfirstAPP\CC2530DB\..\..\..\Tools\CC25 /
//                          30DB\f8wConfig.cfg" (-DSECURE=0                   /
//                          -DZG_SECURE_DYNAMIC=0 -DREFLECTOR                 /
//                          -DDEFAULT_CHANLIST=0x02000000                     /
//                          -DZDAPP_CONFIG_PAN_ID=0xA1B2                      /
//                          -DNWK_START_DELAY=100 -DEXTENDED_JOINING_RANDOM_M /
//                          ASK=0x007F -DBEACON_REQUEST_DELAY=100             /
//                          -DBEACON_REQ_DELAY_MASK=0x00FF                    /
//                          -DROUTE_EXPIRY_TIME=30 -DAPSC_ACK_WAIT_DURATION_P /
//                          OLLED=3000 -DNWK_INDIRECT_MSG_TIMEOUT=7           /
//                          -DMAX_RREQ_ENTRIES=8 -DAPSC_MAX_FRAME_RETRIES=3   /
//                          -DNWK_MAX_DATA_RETRIES=2                          /
//                          -DMAX_POLL_FAILURE_RETRIES=2 -DMAX_BCAST=9        /
//                          -DAPS_MAX_GROUPS=16 -DMAX_RTG_ENTRIES=40          /
//                          -DNWK_MAX_BINDING_ENTRIES=4                       /
//                          -DMAX_BINDING_CLUSTER_IDS=4                       /
//                          "-DDEFAULT_KEY={0x01, 0x03, 0x05, 0x07, 0x09,     /
//                          0x0B, 0x0D, 0x0F, 0x00, 0x02, 0x04, 0x06, 0x08,   /
//                          0x0A, 0x0C, 0x0D}" -DMAC_MAX_FRAME_SIZE=116       /
//                          "-DCONST=const __code" -DGENERIC=__generic        /
//                          -DRFD_RCVC_ALWAYS_ON=FALSE -DPOLL_RATE=1000       /
//                          -DQUEUED_POLL_RATE=100 -DRESPONSE_POLL_RATE=100)  /
//                          -DREJOIN_POLL_RATE=440 "E:\Zigbee-timer\Texas     /
//                          Instruments\Projects\zstack\Samples\MyfirstAPP\So /
//                          urce\Basic.c" -D ZIGBEEPRO -D NWK_AUTO_POLL -D    /
//                          ZTOOL_P1 -D MT_TASK -D MT_SYS_FUNC -D             /
//                          MT_ZDO_FUNC -D LCD_SUPPORTED=DEBUG -D             /
//                          xPOWER_SAVING -lC "E:\Zigbee-timer\Texas          /
//                          Instruments\Projects\zstack\Samples\MyfirstAPP\CC /
//                          2530DB\EndDeviceEB-Pro\List\" -lA                 /
//                          "E:\Zigbee-timer\Texas Instruments\Projects\zstac /
//                          k\Samples\MyfirstAPP\CC2530DB\EndDeviceEB-Pro\Lis /
//                          t\" --diag_suppress Pe001,Pa010 -o                /
//                          "E:\Zigbee-timer\Texas Instruments\Projects\zstac /
//                          k\Samples\MyfirstAPP\CC2530DB\EndDeviceEB-Pro\Obj /
//                          \" -e --debug --core=plain --dptr=16,1            /
//                          --data_model=large --code_model=banked            /
//                          --calling_convention=xdata_reentrant              /
//                          --place_constants=data_rom --nr_virtual_regs 8    /
//                          -I "E:\Zigbee-timer\Texas                         /
//                          Instruments\Projects\zstack\Samples\MyfirstAPP\CC /
//                          2530DB\" -I "E:\Zigbee-timer\Texas                /
//                          Instruments\Projects\zstack\Samples\MyfirstAPP\CC /
//                          2530DB\..\SOURCE\" -I "E:\Zigbee-timer\Texas      /
//                          Instruments\Projects\zstack\Samples\MyfirstAPP\CC /
//                          2530DB\..\..\..\ZMAIN\TI2530DB\" -I               /
//                          "E:\Zigbee-timer\Texas Instruments\Projects\zstac /
//                          k\Samples\MyfirstAPP\CC2530DB\..\..\..\..\..\COMP /
//                          ONENTS\MT\" -I "E:\Zigbee-timer\Texas             /
//                          Instruments\Projects\zstack\Samples\MyfirstAPP\CC /
//                          2530DB\..\..\..\..\..\COMPONENTS\HAL\INCLUDE\"    /
//                          -I "E:\Zigbee-timer\Texas                         /
//                          Instruments\Projects\zstack\Samples\MyfirstAPP\CC /
//                          2530DB\..\..\..\..\..\COMPONENTS\HAL\TARGET\CC253 /
//                          0EB\" -I "E:\Zigbee-timer\Texas                   /
//                          Instruments\Projects\zstack\Samples\MyfirstAPP\CC /
//                          2530DB\..\..\..\..\..\COMPONENTS\OSAL\MCU\CCSOC\" /
//                           -I "E:\Zigbee-timer\Texas                        /
//                          Instruments\Projects\zstack\Samples\MyfirstAPP\CC /
//                          2530DB\..\..\..\..\..\COMPONENTS\OSAL\INCLUDE\"   /
//                          -I "E:\Zigbee-timer\Texas                         /
//                          Instruments\Projects\zstack\Samples\MyfirstAPP\CC /
//                          2530DB\..\..\..\..\..\COMPONENTS\STACK\AF\" -I    /
//                          "E:\Zigbee-timer\Texas Instruments\Projects\zstac /
//                          k\Samples\MyfirstAPP\CC2530DB\..\..\..\..\..\COMP /
//                          ONENTS\STACK\NWK\" -I "E:\Zigbee-timer\Texas      /
//                          Instruments\Projects\zstack\Samples\MyfirstAPP\CC /
//                          2530DB\..\..\..\..\..\COMPONENTS\STACK\SEC\" -I   /
//                          "E:\Zigbee-timer\Texas Instruments\Projects\zstac /
//                          k\Samples\MyfirstAPP\CC2530DB\..\..\..\..\..\COMP /
//                          ONENTS\STACK\SAPI\" -I "E:\Zigbee-timer\Texas     /
//                          Instruments\Projects\zstack\Samples\MyfirstAPP\CC /
//                          2530DB\..\..\..\..\..\COMPONENTS\STACK\SYS\" -I   /
//                          "E:\Zigbee-timer\Texas Instruments\Projects\zstac /
//                          k\Samples\MyfirstAPP\CC2530DB\..\..\..\..\..\COMP /
//                          ONENTS\STACK\ZDO\" -I "E:\Zigbee-timer\Texas      /
//                          Instruments\Projects\zstack\Samples\MyfirstAPP\CC /
//                          2530DB\..\..\..\..\..\COMPONENTS\ZMAC\F8W\" -I    /
//                          "E:\Zigbee-timer\Texas Instruments\Projects\zstac /
//                          k\Samples\MyfirstAPP\CC2530DB\..\..\..\..\..\COMP /
//                          ONENTS\ZMAC\" -I "E:\Zigbee-timer\Texas           /
//                          Instruments\Projects\zstack\Samples\MyfirstAPP\CC /
//                          2530DB\..\..\..\..\..\COMPONENTS\SERVICES\SADDR\" /
//                           -I "E:\Zigbee-timer\Texas                        /
//                          Instruments\Projects\zstack\Samples\MyfirstAPP\CC /
//                          2530DB\..\..\..\..\..\COMPONENTS\SERVICES\SDATA\" /
//                           -I "E:\Zigbee-timer\Texas                        /
//                          Instruments\Projects\zstack\Samples\MyfirstAPP\CC /
//                          2530DB\..\..\..\..\..\COMPONENTS\MAC\INCLUDE\"    /
//                          -I "E:\Zigbee-timer\Texas                         /
//                          Instruments\Projects\zstack\Samples\MyfirstAPP\CC /
//                          2530DB\..\..\..\..\..\COMPONENTS\MAC\HIGH_LEVEL\" /
//                           -I "E:\Zigbee-timer\Texas                        /
//                          Instruments\Projects\zstack\Samples\MyfirstAPP\CC /
//                          2530DB\..\..\..\..\..\COMPONENTS\MAC\LOW_LEVEL\sr /
//                          f04\" -I "E:\Zigbee-timer\Texas                   /
//                          Instruments\Projects\zstack\Samples\MyfirstAPP\CC /
//                          2530DB\..\..\..\..\..\COMPONENTS\MAC\LOW_LEVEL\sr /
//                          f04\SINGLE_CHIP\" -Ohz --require_prototypes       /
//    List file          =  E:\Zigbee-timer\Texas Instruments\Projects\zstack /
//                          \Samples\MyfirstAPP\CC2530DB\EndDeviceEB-Pro\List /
//                          \Basic.s51                                        /
//                                                                            /
//                                                                            /
///////////////////////////////////////////////////////////////////////////////

        NAME Basic

        RTMODEL "__SystemLibrary", "CLib"
        RTMODEL "__calling_convention", "xdata_reentrant"
        RTMODEL "__code_model", "banked"
        RTMODEL "__core", "plain"
        RTMODEL "__data_model", "large"
        RTMODEL "__dptr_size", "16"
        RTMODEL "__extended_stack", "disabled"
        RTMODEL "__location_for_constants", "data"
        RTMODEL "__number_of_dptrs", "1"
        RTMODEL "__rt_version", "1"

        RSEG DOVERLAY:DATA:NOROOT(0)
        RSEG IOVERLAY:IDATA:NOROOT(0)
        RSEG ISTACK:IDATA:NOROOT(0)
        RSEG PSTACK:XDATA:NOROOT(0)
        RSEG XSTACK:XDATA:NOROOT(0)

        EXTERN ?BANKED_ENTER_XDATA
        EXTERN ?BANKED_LEAVE_XDATA
        EXTERN ?BDISPATCH
        EXTERN ?BRET
        EXTERN ?S_SHL
        EXTERN ?V0
        EXTERN ?XSTACK_DISP0_8

        PUBLIC ??GetIOLevel?relay
        FUNCTION ??GetIOLevel?relay,0203H
        PUBLIC ??IOIntteruptSet?relay
        FUNCTION ??IOIntteruptSet?relay,0203H
        PUBLIC ??LED_4_5_PortInit?relay
        FUNCTION ??LED_4_5_PortInit?relay,0203H
        PUBLIC ??LED_Flash?relay
        FUNCTION ??LED_Flash?relay,0203H
        PUBLIC ??SetIOInput?relay
        FUNCTION ??SetIOInput?relay,0203H
        PUBLIC ??SetIOLevel?relay
        FUNCTION ??SetIOLevel?relay,0203H
        PUBLIC ??SetIOOutput?relay
        FUNCTION ??SetIOOutput?relay,0203H
        PUBLIC ??SystemClockSet?relay
        FUNCTION ??SystemClockSet?relay,0203H
        PUBLIC ??delay_10ms?relay
        FUNCTION ??delay_10ms?relay,0203H
        PUBWEAK CLKCONCMD
        PUBWEAK CLKCONSTA
        PUBLIC GetIOLevel
        FUNCTION GetIOLevel,0203H
        ARGFRAME XSTACK, 0, STACK
        LOCFRAME ISTACK, 2, STACK
        PUBWEAK IEN2
        PUBLIC IOIntteruptSet
        FUNCTION IOIntteruptSet,0203H
        ARGFRAME XSTACK, 0, STACK
        LOCFRAME ISTACK, 2, STACK
        PUBLIC LED_4_5_PortInit
        FUNCTION LED_4_5_PortInit,0203H
        ARGFRAME XSTACK, 0, STACK
        PUBLIC LED_Flash
        FUNCTION LED_Flash,021203H
        ARGFRAME XSTACK, 2, STACK
        LOCFRAME XSTACK, 16, STACK
        PUBWEAK P0DIR
        PUBWEAK P0IEN
        PUBWEAK P0INP
        PUBWEAK P0SEL
        PUBWEAK P1DIR
        PUBWEAK P1IEN
        PUBWEAK P1INP
        PUBWEAK P1SEL
        PUBWEAK P2DIR
        PUBWEAK P2IEN
        PUBWEAK P2INP
        PUBWEAK P2SEL
        PUBWEAK PICTL
        PUBLIC SetIOInput
        FUNCTION SetIOInput,0203H
        ARGFRAME XSTACK, 0, STACK
        LOCFRAME ISTACK, 2, STACK
        PUBLIC SetIOLevel
        FUNCTION SetIOLevel,0203H
        ARGFRAME XSTACK, 0, STACK
        LOCFRAME ISTACK, 2, STACK
        PUBLIC SetIOOutput
        FUNCTION SetIOOutput,0203H
        ARGFRAME XSTACK, 0, STACK
        LOCFRAME ISTACK, 2, STACK
        PUBLIC SystemClockSet
        FUNCTION SystemClockSet,0203H
        ARGFRAME XSTACK, 0, STACK
        PUBWEAK _A_IEN1
        PUBWEAK _A_P0
        PUBWEAK _A_P1
        PUBWEAK _A_P2
        PUBLIC delay_10ms
        FUNCTION delay_10ms,0203H
        ARGFRAME XSTACK, 16, STACK
        ARGFRAME IOVERLAY, 0, STATIC
        ARGFRAME DOVERLAY, 0, STATIC
        
        CFI Names cfiNames0
        CFI StackFrame CFA_SP SP IDATA
        CFI StackFrame CFA_PSP16 PSP16 XDATA
        CFI StackFrame CFA_XSP16 XSP16 XDATA
        CFI StaticOverlayFrame CFA_IOVERLAY IOVERLAY
        CFI StaticOverlayFrame CFA_DOVERLAY DOVERLAY
        CFI Resource `PSW.CY`:1, `B.BR0`:1, `B.BR1`:1, `B.BR2`:1, `B.BR3`:1
        CFI Resource `B.BR4`:1, `B.BR5`:1, `B.BR6`:1, `B.BR7`:1, `VB.BR8`:1
        CFI Resource `VB.BR9`:1, `VB.BR10`:1, `VB.BR11`:1, `VB.BR12`:1
        CFI Resource `VB.BR13`:1, `VB.BR14`:1, `VB.BR15`:1, VB:8, B:8, A:8
        CFI Resource PSW:8, DPL0:8, DPH0:8, R0:8, R1:8, R2:8, R3:8, R4:8, R5:8
        CFI Resource R6:8, R7:8, V0:8, V1:8, V2:8, V3:8, V4:8, V5:8, V6:8, V7:8
        CFI Resource SP:8, PSPH:8, PSPL:8, PSP16:16, XSPH:8, XSPL:8, XSP16:16
        CFI VirtualResource ?RET:24
        CFI Resource ?BRET_EXT:8
        CFI VirtualResource ?RET_HIGH:8, ?RET_LOW:8
        CFI ResourceParts PSP16 PSPH, PSPL
        CFI ResourceParts XSP16 XSPH, XSPL
        CFI ResourceParts ?RET ?BRET_EXT, ?RET_HIGH, ?RET_LOW
        CFI EndNames cfiNames0
        
        CFI Common cfiCommon0 Using cfiNames0
        CFI CodeAlign 1
        CFI DataAlign -1
        CFI ReturnAddress ?RET CODE
        CFI CFA_DOVERLAY Used
        CFI CFA_IOVERLAY Used
        CFI CFA_SP SP+-3
        CFI CFA_PSP16 PSP16+0
        CFI CFA_XSP16 XSP16+0
        CFI `PSW.CY` SameValue
        CFI `B.BR0` SameValue
        CFI `B.BR1` SameValue
        CFI `B.BR2` SameValue
        CFI `B.BR3` SameValue
        CFI `B.BR4` SameValue
        CFI `B.BR5` SameValue
        CFI `B.BR6` SameValue
        CFI `B.BR7` SameValue
        CFI `VB.BR8` SameValue
        CFI `VB.BR9` SameValue
        CFI `VB.BR10` SameValue
        CFI `VB.BR11` SameValue
        CFI `VB.BR12` SameValue
        CFI `VB.BR13` SameValue
        CFI `VB.BR14` SameValue
        CFI `VB.BR15` SameValue
        CFI VB SameValue
        CFI B Undefined
        CFI A Undefined
        CFI PSW SameValue
        CFI DPL0 SameValue
        CFI DPH0 SameValue
        CFI R0 Undefined
        CFI R1 Undefined
        CFI R2 Undefined
        CFI R3 Undefined
        CFI R4 Undefined
        CFI R5 Undefined
        CFI R6 SameValue
        CFI R7 SameValue
        CFI V0 SameValue
        CFI V1 SameValue
        CFI V2 SameValue
        CFI V3 SameValue
        CFI V4 SameValue
        CFI V5 SameValue
        CFI V6 SameValue
        CFI V7 SameValue
        CFI PSPH Undefined
        CFI PSPL Undefined
        CFI XSPH Undefined
        CFI XSPL Undefined
        CFI ?RET Concat
        CFI ?BRET_EXT Frame(CFA_SP, 3)
        CFI ?RET_HIGH Frame(CFA_SP, 2)
        CFI ?RET_LOW Frame(CFA_SP, 1)
        CFI EndCommon cfiCommon0
        
GetIOLevel          SYMBOL "GetIOLevel"
??GetIOLevel?relay  SYMBOL "?relay", GetIOLevel
IOIntteruptSet      SYMBOL "IOIntteruptSet"
??IOIntteruptSet?relay SYMBOL "?relay", IOIntteruptSet
LED_4_5_PortInit    SYMBOL "LED_4_5_PortInit"
??LED_4_5_PortInit?relay SYMBOL "?relay", LED_4_5_PortInit
LED_Flash           SYMBOL "LED_Flash"
??LED_Flash?relay   SYMBOL "?relay", LED_Flash
SetIOInput          SYMBOL "SetIOInput"
??SetIOInput?relay  SYMBOL "?relay", SetIOInput
SetIOLevel          SYMBOL "SetIOLevel"
??SetIOLevel?relay  SYMBOL "?relay", SetIOLevel
SetIOOutput         SYMBOL "SetIOOutput"
??SetIOOutput?relay SYMBOL "?relay", SetIOOutput
SystemClockSet      SYMBOL "SystemClockSet"
??SystemClockSet?relay SYMBOL "?relay", SystemClockSet
delay_10ms          SYMBOL "delay_10ms"
??delay_10ms?relay  SYMBOL "?relay", delay_10ms

// E:\Zigbee-timer\Texas Instruments\Projects\zstack\Samples\MyfirstAPP\Source\Basic.c
//    1 /***********************************************************
//    2 **  FileName:         Basic.c
//    3 **  Introductions:    Sunplusapp CC2530 ZigBee Node Basic Functions & Options
//    4 **  Last Modify time: 2013.06.13
//    5 **  Modify:           传感器实验仪中LED标号更改，添加控制LED闪烁的函数
//    6 **  Author:           GuoZhenjiang	<zhenjiang.guo@sunplusapp.com>
//    7 ***********************************************************/
//    8 
//    9 #include "Basic.h"

        ASEGN SFR_AN:DATA:NOROOT,080H
// union <unnamed> volatile __sfr _A_P0
_A_P0:
        DATA8
        DS 1

        ASEGN SFR_AN:DATA:NOROOT,08cH
// unsigned char volatile __sfr PICTL
PICTL:
        DATA8
        DS 1

        ASEGN SFR_AN:DATA:NOROOT,08dH
// unsigned char volatile __sfr P1IEN
P1IEN:
        DATA8
        DS 1

        ASEGN SFR_AN:DATA:NOROOT,08fH
// unsigned char volatile __sfr P0INP
P0INP:
        DATA8
        DS 1

        ASEGN SFR_AN:DATA:NOROOT,090H
// union <unnamed> volatile __sfr _A_P1
_A_P1:
        DATA8
        DS 1

        ASEGN SFR_AN:DATA:NOROOT,09aH
// unsigned char volatile __sfr IEN2
IEN2:
        DATA8
        DS 1

        ASEGN SFR_AN:DATA:NOROOT,09eH
// unsigned char volatile __sfr CLKCONSTA
CLKCONSTA:
        DATA8
        DS 1

        ASEGN SFR_AN:DATA:NOROOT,0a0H
// union <unnamed> volatile __sfr _A_P2
_A_P2:
        DATA8
        DS 1

        ASEGN SFR_AN:DATA:NOROOT,0abH
// unsigned char volatile __sfr P0IEN
P0IEN:
        DATA8
        DS 1

        ASEGN SFR_AN:DATA:NOROOT,0acH
// unsigned char volatile __sfr P2IEN
P2IEN:
        DATA8
        DS 1

        ASEGN SFR_AN:DATA:NOROOT,0b8H
// union <unnamed> volatile __sfr _A_IEN1
_A_IEN1:
        DATA8
        DS 1

        ASEGN SFR_AN:DATA:NOROOT,0c6H
// unsigned char volatile __sfr CLKCONCMD
CLKCONCMD:
        DATA8
        DS 1

        ASEGN SFR_AN:DATA:NOROOT,0f3H
// unsigned char volatile __sfr P0SEL
P0SEL:
        DATA8
        DS 1

        ASEGN SFR_AN:DATA:NOROOT,0f4H
// unsigned char volatile __sfr P1SEL
P1SEL:
        DATA8
        DS 1

        ASEGN SFR_AN:DATA:NOROOT,0f5H
// unsigned char volatile __sfr P2SEL
P2SEL:
        DATA8
        DS 1

        ASEGN SFR_AN:DATA:NOROOT,0f6H
// unsigned char volatile __sfr P1INP
P1INP:
        DATA8
        DS 1

        ASEGN SFR_AN:DATA:NOROOT,0f7H
// unsigned char volatile __sfr P2INP
P2INP:
        DATA8
        DS 1

        ASEGN SFR_AN:DATA:NOROOT,0fdH
// unsigned char volatile __sfr P0DIR
P0DIR:
        DATA8
        DS 1

        ASEGN SFR_AN:DATA:NOROOT,0feH
// unsigned char volatile __sfr P1DIR
P1DIR:
        DATA8
        DS 1

        ASEGN SFR_AN:DATA:NOROOT,0ffH
// unsigned char volatile __sfr P2DIR
P2DIR:
        DATA8
        DS 1
//   10 
//   11 /***********************************************************
//   12 **  函数名称: SystemClockSet
//   13 **  实现功能: 系统时钟设置
//   14 **  入口参数: RTC_Clk:  RTC时钟源选择( CPU_32kHz_RC 或 CPU_32kHz_XOC)
//   15 **            CPU_Clk:  CPU时钟源选择( CPU_16MHz_RC 或 CPU_32MHz_XOC)
//   16 **            T_Spd:    定时器时钟源预分频设置，TSPD_x，表示取CPU时钟源的1/x。
//   17 **            CPU_Spd:  CPU时钟源预分频设置， CLKSPD_x，表示取CPU时钟源的1/x。
//   18 **  返回结果: None
//   19 ***********************************************************/

        RSEG BANKED_CODE:CODE:NOROOT(0)
//   20 void SystemClockSet( ClkSet_t RTC_Clk, ClkSet_t CPU_Clk, ClkSet_t T_Spd, ClkSet_t CPU_Spd )
SystemClockSet:
        CFI Block cfiBlock0 Using cfiCommon0
        CFI Function SystemClockSet
        CODE
//   21 {
        ; Saved register size: 0
        ; Auto size: 0
//   22     uint8 SysClockSet;
//   23     SysClockSet = RTC_Clk | CPU_Clk | T_Spd | CPU_Spd;
        MOV     A,R1
        ORL     A,R2
        ORL     A,R3
        ORL     A,R4
        MOV     R0,A
//   24     //设置系统各项时钟参数
//   25     CLKCONCMD = SysClockSet;
        MOV     0xc6,R0
//   26 
//   27     //等待时钟稳定
//   28     while( CLKCONSTA != SysClockSet)
??SystemClockSet_0:
        MOV     A,0x9e
        XRL     A,R0
        JNZ     ??SystemClockSet_0
//   29         ;
//   30 }
        LJMP    ?BRET
        CFI EndBlock cfiBlock0
        REQUIRE CLKCONCMD
        REQUIRE CLKCONSTA
//   31 
//   32 /***********************************************************
//   33 **  函数名称: delay_us
//   34 **  实现功能: 微秒级短暂延时
//   35 **  入口参数: [t]:CPU 减一延时次数;
//   36 **  返回结果: None
//   37 ***********************************************************/
//   38 /*
//   39 void delay_us(uint16 t)
//   40 {
//   41     uint16 i;
//   42     for(i=0; i<t; i++)
//   43         ;
//   44 }
//   45 */
//   46 /***********************************************************
//   47 **  函数名称: delay_10ms
//   48 **  实现功能: 延时函数
//   49 **  入口参数: num_10ms:要延时值的 10ms 个数;
//   50 **  返回结果: None
//   51 ***********************************************************/

        RSEG BANKED_CODE:CODE:NOROOT(0)
//   52 void delay_10ms(uint16 num_10ms)
delay_10ms:
        CFI Block cfiBlock1 Using cfiCommon0
        CFI Function delay_10ms
        CODE
//   53 {
        ; Saved register size: 0
        ; Auto size: 0
//   54     uint16 i, j, k;
//   55     for(i=0; i<num_10ms; i++)
        MOV     R0,#0x0
        MOV     R1,#0x0
        SJMP    ??delay_10ms_0
//   56         for(j=0; j<100; j++)
//   57             for(k=0; k<100; k++)
??delay_10ms_1:
        MOV     A,R0
        ADD     A,#0x1
        INC     R0
        MOV     A,R1
        ADDC    A,#0x0
        MOV     R1,A
??delay_10ms_0:
        CLR     C
        MOV     A,R0
        SUBB    A,R2
        MOV     A,R1
        SUBB    A,R3
        JC      ??delay_10ms_1
//   58                 ;
//   59 }
        LJMP    ?BRET
        CFI EndBlock cfiBlock1
//   60 
//   61 /***********************************************************
//   62 **  函数名称: LED_4_5_PortInit
//   63 **  实现功能: 扩展板上的 LED_D4_D5 端口初始化
//   64 **  入口参数: None
//   65 **  返回结果: None
//   66 ***********************************************************/

        RSEG BANKED_CODE:CODE:NOROOT(0)
//   67 void LED_4_5_PortInit(void)
LED_4_5_PortInit:
        CFI Block cfiBlock2 Using cfiCommon0
        CFI Function LED_4_5_PortInit
        CODE
//   68 {
        ; Saved register size: 0
        ; Auto size: 0
//   69     P1SEL &= ~0X02;
        ANL     0xf4,#0xfd
//   70     P2SEL &= ~0X01;
        ANL     0xf5,#0xfe
//   71 
//   72     P1DIR |= 0X02;
        ORL     0xfe,#0x2
//   73     P2DIR |= 0X01;
        ORL     0xff,#0x1
//   74 
//   75     LED_4_OFF;
        SETB    0xa0.0
//   76     LED_5_OFF;
        SETB    0x90.1
//   77 }
        LJMP    ?BRET
        CFI EndBlock cfiBlock2
        REQUIRE P1SEL
        REQUIRE P2SEL
        REQUIRE P1DIR
        REQUIRE P2DIR
        REQUIRE _A_P2
        REQUIRE _A_P1
//   78 
//   79 /***********************************************************
//   80 **  函数名称: LED_Flash
//   81 **  实现功能: LED4 & LED5闪烁控制
//   82 **  入口参数: led:启用的LED
//   83 **            num:闪烁次数
//   84 **            onTime:每次闪烁亮起时间10ms数
//   85 **            offTime:每次闪烁熄灭时间10ms数
//   86 **  返回结果: None
//   87 ***********************************************************/

        RSEG BANKED_CODE:CODE:NOROOT(0)
//   88 void LED_Flash(LED_t led, uint16 num, uint16 onTime, uint16 offTime)
LED_Flash:
        CFI Block cfiBlock3 Using cfiCommon0
        CFI Function LED_Flash
        CODE
//   89 {
        FUNCALL LED_Flash, delay_10ms
        LOCFRAME ISTACK, 0, STACK
        LOCFRAME PSTACK, 0, STACK
        LOCFRAME XSTACK, 16, STACK
        LOCFRAME IOVERLAY, 0, STATIC
        LOCFRAME DOVERLAY, 0, STATIC
        ARGFRAME ISTACK, 0, STACK
        ARGFRAME PSTACK, 0, STACK
        ARGFRAME XSTACK, 16, STACK
        ARGFRAME IOVERLAY, 0, STATIC
        ARGFRAME DOVERLAY, 0, STATIC
        FUNCALL LED_Flash, delay_10ms
        LOCFRAME ISTACK, 0, STACK
        LOCFRAME PSTACK, 0, STACK
        LOCFRAME XSTACK, 16, STACK
        LOCFRAME IOVERLAY, 0, STATIC
        LOCFRAME DOVERLAY, 0, STATIC
        ARGFRAME ISTACK, 0, STACK
        ARGFRAME PSTACK, 0, STACK
        ARGFRAME XSTACK, 16, STACK
        ARGFRAME IOVERLAY, 0, STATIC
        ARGFRAME DOVERLAY, 0, STATIC
        MOV     A,#-0x10
        LCALL   ?BANKED_ENTER_XDATA
        CFI DPH0 load(1, XDATA, add(CFA_XSP16, literal(-1)))
        CFI DPL0 load(1, XDATA, add(CFA_XSP16, literal(-2)))
        CFI ?BRET_EXT load(1, XDATA, add(CFA_XSP16, literal(-3)))
        CFI ?RET_HIGH load(1, XDATA, add(CFA_XSP16, literal(-4)))
        CFI ?RET_LOW load(1, XDATA, add(CFA_XSP16, literal(-5)))
        CFI R7 load(1, XDATA, add(CFA_XSP16, literal(-6)))
        CFI V7 load(1, XDATA, add(CFA_XSP16, literal(-7)))
        CFI V6 load(1, XDATA, add(CFA_XSP16, literal(-8)))
        CFI V5 load(1, XDATA, add(CFA_XSP16, literal(-9)))
        CFI V4 load(1, XDATA, add(CFA_XSP16, literal(-10)))
        CFI V3 load(1, XDATA, add(CFA_XSP16, literal(-11)))
        CFI V2 load(1, XDATA, add(CFA_XSP16, literal(-12)))
        CFI V1 load(1, XDATA, add(CFA_XSP16, literal(-13)))
        CFI V0 load(1, XDATA, add(CFA_XSP16, literal(-14)))
        CFI VB load(1, XDATA, add(CFA_XSP16, literal(-15)))
        CFI R6 load(1, XDATA, add(CFA_XSP16, literal(-16)))
        CFI CFA_SP SP+0
        CFI CFA_XSP16 add(XSP16, 16)
        ; Saved register size: 16
        ; Auto size: 0
        MOV     ?V0 + 2,R1
        MOV     ?V0 + 6,R2
        MOV     ?V0 + 7,R3
        MOV     ?V0 + 4,R4
        MOV     ?V0 + 5,R5
        MOV     A,#0x10
        LCALL   ?XSTACK_DISP0_8
        MOVX    A,@DPTR
        MOV     ?V0 + 0,A
        INC     DPTR
        MOVX    A,@DPTR
        MOV     ?V0 + 1,A
//   90     uint16 Num;
//   91     for(Num=0; Num < num; Num++)
        MOV     R6,#0x0
        MOV     R7,#0x0
        SJMP    ??LED_Flash_0
//   92     {
//   93         // 点亮
//   94         switch(led)
//   95         {
//   96         case LED4:  LED_4_ON;   break;
//   97         case LED5:  LED_5_ON;   break;
//   98         case LED45: LED_45_ON;  break;
//   99         default :               break;
//  100         }
//  101         delay_10ms(onTime);
//  102         // 熄灭
//  103         switch(led)
//  104         {
//  105         case LED4:  LED_4_OFF;  break;
//  106         case LED5:  LED_5_OFF;  break;
//  107         case LED45: LED_45_OFF; break;
??LED_Flash_1:
        SETB    0xa0.0
??LED_Flash_2:
        SETB    0x90.1
//  108         default :               break;
//  109         }
//  110         delay_10ms(offTime);
??LED_Flash_3:
        ; Setup parameters for call to function delay_10ms
        MOV     R2,?V0 + 0
        MOV     R3,?V0 + 1
        LCALL   ??delay_10ms?relay
        MOV     A,R6
        ADD     A,#0x1
        INC     R6
        MOV     A,R7
        ADDC    A,#0x0
        MOV     R7,A
??LED_Flash_0:
        CLR     C
        MOV     A,R6
        SUBB    A,?V0 + 6
        MOV     A,R7
        SUBB    A,?V0 + 7
        JNC     ??LED_Flash_4
        MOV     A,?V0 + 2
        JZ      ??LED_Flash_5
        DEC     A
        JZ      ??LED_Flash_6
        DEC     A
        JZ      ??LED_Flash_7
        SJMP    ??LED_Flash_8
??LED_Flash_5:
        CLR     0xa0.0
        SJMP    ??LED_Flash_8
??LED_Flash_7:
        CLR     0xa0.0
??LED_Flash_6:
        CLR     0x90.1
??LED_Flash_8:
        ; Setup parameters for call to function delay_10ms
        MOV     R2,?V0 + 4
        MOV     R3,?V0 + 5
        LCALL   ??delay_10ms?relay
        MOV     A,?V0 + 2
        JZ      ??LED_Flash_9
        DEC     A
        JZ      ??LED_Flash_2
        DEC     A
        JZ      ??LED_Flash_1
        SJMP    ??LED_Flash_3
??LED_Flash_9:
        SETB    0xa0.0
        SJMP    ??LED_Flash_3
//  111     }
//  112 }
??LED_Flash_4:
        MOV     R7,#0x8
        LJMP    ?BANKED_LEAVE_XDATA
        CFI EndBlock cfiBlock3
        REQUIRE _A_P2
        REQUIRE _A_P1
//  113 
//  114 /***********************************************************
//  115 **  函数名称: SetIOInput
//  116 **  实现功能: 设置端口为普通输入IO
//  117 **  入口参数: group:Port;
//  118 **            bit:Bit;
//  119 **            pull:(Pull_None:无上下拉; Pull_Up:上拉; Pull_Down:下拉;);
//  120 **  返回结果: None
//  121 ***********************************************************/

        RSEG BANKED_CODE:CODE:NOROOT(0)
//  122 void SetIOInput(uint8 group, uint8 bit, PullSet_t pull)
SetIOInput:
        CFI Block cfiBlock4 Using cfiCommon0
        CFI Function SetIOInput
        CODE
//  123 {
        PUSH    ?V0 + 0
        CFI V0 Frame(CFA_SP, 4)
        CFI CFA_SP SP+-4
        PUSH    ?V0 + 1
        CFI V1 Frame(CFA_SP, 5)
        CFI CFA_SP SP+-5
        ; Saved register size: 2
        ; Auto size: 0
        MOV     ?V0 + 0,#0x1
        MOV     ?V0 + 1,#0x0
        MOV     A,R2
        MOV     R0,#?V0 + 0
        LCALL   ?S_SHL
        MOV     R0,?V0 + 0
        MOV     A,R0
        CPL     A
        MOV     R4,A
        MOV     A,R1
        JZ      ??SetIOInput_0
        DEC     A
        JZ      ??SetIOInput_1
        DEC     A
        JZ      ??SetIOInput_2
        SJMP    ??SetIOInput_3
//  124     switch(group)
//  125     {
//  126     case 0:
//  127         //设置为通用输入IO
//  128         P0DIR &= BIT_0(bit); P0SEL &= BIT_0(bit);
??SetIOInput_0:
        MOV     A,R4
        ANL     0xfd,A
        ANL     0xf3,A
//  129         //设置内部上下拉电阻状态
//  130         if(Pull_None == pull)
        MOV     A,R3
        JNZ     ??SetIOInput_4
//  131             P0INP |= BIT_1(bit);     //P0INP[7-0]:(0:上下拉有效; 1:无效;)
        MOV     A,R0
        ORL     0x8f,A
        SJMP    ??SetIOInput_3
//  132         else if(Pull_Up == pull)
??SetIOInput_4:
        MOV     A,#0x1
        XRL     A,R3
        JNZ     ??SetIOInput_3
//  133         {
//  134             P0INP &= BIT_0(bit);     //P0INP[7-0]:(0:上下拉有效; 1:无效;)
        MOV     A,R4
        ANL     0x8f,A
//  135             P2INP &= BIT_0(5);       //P2INP[5  ]:(0:Port0 上拉; 1:Port0 下拉;)
        ANL     0xf7,#0xdf
        SJMP    ??SetIOInput_3
//  136         }
//  137         else if(Pull_Up == pull)
//  138         {
//  139             P0INP &= BIT_0(bit);     //P0INP[7-0]:(0:上下拉有效; 1:无效;)
//  140             P2INP |= BIT_1(5);       //P2INP[5  ]:(0:Port0 上拉; 1:Port0 下拉;)
//  141         }
//  142         break;
//  143     case 1:
//  144         //设置为通用输入IO
//  145         P1DIR &= BIT_0(bit); P1SEL &= BIT_0(bit);
??SetIOInput_1:
        MOV     A,R4
        ANL     0xfe,A
        ANL     0xf4,A
//  146         //设置内部上下拉电阻状态
//  147         if(Pull_None == pull)
        MOV     A,R3
        JNZ     ??SetIOInput_5
//  148             P1INP |= BIT_1(bit);     //P1INP[7-2]:(0:上下拉有效; 1:无效;) P[1-0] 写无效，读为0.
        MOV     A,R0
        ORL     0xf6,A
        SJMP    ??SetIOInput_3
//  149         else if(Pull_Up == pull)
??SetIOInput_5:
        MOV     A,#0x1
        XRL     A,R3
        JNZ     ??SetIOInput_3
//  150         {
//  151             P1INP &= BIT_0(bit);     //P1INP[7-2]:(0:上下拉有效; 1:无效;) P[1-0] 写无效，读为0.
        MOV     A,R4
        ANL     0xf6,A
//  152             P2INP &= BIT_0(6);       //P2INP[6  ]:(0:Port1 上拉; 1:Port1 下拉;)
        ANL     0xf7,#0xbf
        SJMP    ??SetIOInput_3
//  153         }
//  154         else if(Pull_Up == pull)
//  155         {
//  156             P0INP &= BIT_0(bit);     //P1INP[7-2]:(0:上下拉有效; 1:无效;) P[1-0] 写无效，读为0.
//  157             P2INP |= BIT_1(6);       //P2INP[6  ]:(0:Port1 上拉; 1:Port1 下拉;)
//  158         }
//  159         break;
//  160     case 2:
//  161         //设置为通用输入IO
//  162         P2DIR &= BIT_0(bit); P2SEL &= BIT_0(bit);
??SetIOInput_2:
        MOV     A,R4
        ANL     0xff,A
        ANL     0xf5,A
//  163         //设置内部上下拉电阻状态
//  164         if(Pull_None == pull)
        MOV     A,R3
        JNZ     ??SetIOInput_6
//  165             P2INP |= BIT_1(bit);     //P2INP[4-0]:(0:上下拉有效; 1:无效;)
        MOV     A,R0
        ORL     0xf7,A
        SJMP    ??SetIOInput_3
//  166         else if(Pull_Up == pull)
??SetIOInput_6:
        MOV     A,#0x1
        XRL     A,R3
        JNZ     ??SetIOInput_3
//  167         {
//  168             P2INP &= BIT_0(bit);     //P2INP[4-0]:(0:上下拉有效; 1:无效;)
        MOV     A,R4
        ANL     0xf7,A
//  169             P2INP &= BIT_0(7);       //P2INP[7  ]:(0:Port2 上拉; 1:Port2 下拉;)
        ANL     0xf7,#0x7f
//  170         }
//  171         else if(Pull_Up == pull)
//  172         {
//  173             P2INP &= BIT_0(bit);     //P2INP[4-0]:(0:上下拉有效; 1:无效;)
//  174             P2INP |= BIT_1(7);       //P2INP[7  ]:(0:Port2 上拉; 1:Port2 下拉;)
//  175         }
//  176         break;
//  177     default:
//  178         break;
//  179     }
//  180 }
??SetIOInput_3:
        SJMP    ?Subroutine0
        CFI EndBlock cfiBlock4
        REQUIRE P0DIR
        REQUIRE P0SEL
        REQUIRE P0INP
        REQUIRE P2INP
        REQUIRE P1DIR
        REQUIRE P1SEL
        REQUIRE P1INP
        REQUIRE P2DIR
        REQUIRE P2SEL
//  181 
//  182 /***********************************************************
//  183 **  函数名称: SetIOOutput
//  184 **  实现功能: 设置端口为普通输出IO
//  185 **  入口参数: group:Port;
//  186 **            bit:Bit;
//  187 **  返回结果: None
//  188 ***********************************************************/

        RSEG BANKED_CODE:CODE:NOROOT(0)
//  189 void SetIOOutput(uint8 group, uint8 bit)
SetIOOutput:
        CFI Block cfiBlock5 Using cfiCommon0
        CFI Function SetIOOutput
        CODE
//  190 {
        PUSH    ?V0 + 0
        CFI V0 Frame(CFA_SP, 4)
        CFI CFA_SP SP+-4
        PUSH    ?V0 + 1
        CFI V1 Frame(CFA_SP, 5)
        CFI CFA_SP SP+-5
        ; Saved register size: 2
        ; Auto size: 0
        MOV     ?V0 + 0,#0x1
        MOV     ?V0 + 1,#0x0
        MOV     A,R2
        MOV     R0,#?V0 + 0
        LCALL   ?S_SHL
        MOV     R0,?V0 + 0
        MOV     A,R0
        CPL     A
        MOV     R3,A
        MOV     A,R1
        JZ      ??SetIOOutput_0
        DEC     A
        JZ      ??SetIOOutput_1
        DEC     A
        JZ      ??SetIOOutput_2
        SJMP    ??SetIOOutput_3
//  191     switch(group)
//  192     {
//  193         case 0: P0DIR |= BIT_1(bit); P0SEL &= BIT_0(bit); break;
??SetIOOutput_0:
        MOV     A,R0
        ORL     0xfd,A
        MOV     A,R3
        ANL     0xf3,A
        SJMP    ??SetIOOutput_3
//  194         case 1: P1DIR |= BIT_1(bit); P1SEL &= BIT_0(bit); break;
??SetIOOutput_1:
        MOV     A,R0
        ORL     0xfe,A
        MOV     A,R3
        ANL     0xf4,A
        SJMP    ??SetIOOutput_3
//  195         case 2: P2DIR |= BIT_1(bit); P2SEL &= BIT_0(bit); break;
??SetIOOutput_2:
        MOV     A,R0
        ORL     0xff,A
        MOV     A,R3
        ANL     0xf5,A
//  196         default:    break;
//  197     }
//  198 }
??SetIOOutput_3:
        SJMP    ?Subroutine0
        CFI EndBlock cfiBlock5
        REQUIRE P0DIR
        REQUIRE P0SEL
        REQUIRE P1DIR
        REQUIRE P1SEL
        REQUIRE P2DIR
        REQUIRE P2SEL
//  199 
//  200 /***********************************************************
//  201 **  函数名称: GetIOLevel
//  202 **  实现功能: 获取端口的输入状态
//  203 **  入口参数: group:Port;
//  204 **            bit:Bit;
//  205 **  返回结果: (0:Low; 1:High;)
//  206 ***********************************************************/

        RSEG BANKED_CODE:CODE:NOROOT(0)
//  207 uint8 GetIOLevel(uint8 group, uint8 bit)
GetIOLevel:
        CFI Block cfiBlock6 Using cfiCommon0
        CFI Function GetIOLevel
        CODE
//  208 {
        PUSH    ?V0 + 0
        CFI V0 Frame(CFA_SP, 4)
        CFI CFA_SP SP+-4
        PUSH    ?V0 + 1
        CFI V1 Frame(CFA_SP, 5)
        CFI CFA_SP SP+-5
        ; Saved register size: 2
        ; Auto size: 0
        MOV     A,R1
        MOV     R3,A
        MOV     ?V0 + 0,#0x1
        MOV     ?V0 + 1,#0x0
        MOV     A,R2
        MOV     R0,#?V0 + 0
        LCALL   ?S_SHL
        MOV     R0,?V0 + 0
        MOV     A,R3
        JZ      ??GetIOLevel_0
        DEC     A
        JZ      ??GetIOLevel_1
        DEC     A
        JZ      ??GetIOLevel_2
        SJMP    ??GetIOLevel_3
//  209     switch(group)
//  210     {
//  211         case 0: return !!(P0 & (BIT_1(bit)));
??GetIOLevel_0:
        MOV     A,0x80
        ANL     A,R0
        JZ      ??GetIOLevel_3
??GetIOLevel_4:
        MOV     R1,#0x1
        SJMP    ??GetIOLevel_5
//  212         case 1: return !!(P1 & (BIT_1(bit)));
??GetIOLevel_1:
        MOV     A,0x90
        ANL     A,R0
        JZ      ??GetIOLevel_3
        SJMP    ??GetIOLevel_4
//  213         case 2: return !!(P2 & (BIT_1(bit)));
??GetIOLevel_2:
        MOV     A,0xa0
        ANL     A,R0
        JNZ     ??GetIOLevel_4
//  214         default:    break;
//  215     }
//  216     return 0;
??GetIOLevel_3:
        MOV     R1,#0x0
        CFI EndBlock cfiBlock6
??GetIOLevel_5:
        REQUIRE ?Subroutine0
        REQUIRE _A_P0
        REQUIRE _A_P1
        REQUIRE _A_P2
        ; // Fall through to label ?Subroutine0
//  217 }

        RSEG BANKED_CODE:CODE:NOROOT(0)
?Subroutine0:
        CFI Block cfiBlock7 Using cfiCommon0
        CFI NoFunction
        CFI CFA_SP SP+-5
        CFI V0 Frame(CFA_SP, 4)
        CFI V1 Frame(CFA_SP, 5)
        POP     ?V0 + 1
        CFI CFA_SP SP+-4
        CFI V1 SameValue
        POP     ?V0 + 0
        CFI CFA_SP SP+-3
        CFI V0 SameValue
        LJMP    ?BRET
        CFI EndBlock cfiBlock7
//  218 
//  219 /***********************************************************
//  220 **  函数名称: SetIOLevel
//  221 **  实现功能: 设置端口的输出电平
//  222 **  入口参数: group:Port;
//  223 **            bit:Bit;
//  224 **            value:(0:Low; 1:High);
//  225 **  返回结果: None
//  226 ***********************************************************/

        RSEG BANKED_CODE:CODE:NOROOT(0)
//  227 void SetIOLevel(uint8 group, uint8 bit, uint8 value)
SetIOLevel:
        CFI Block cfiBlock8 Using cfiCommon0
        CFI Function SetIOLevel
        CODE
//  228 {
        PUSH    ?V0 + 0
        CFI V0 Frame(CFA_SP, 4)
        CFI CFA_SP SP+-4
        PUSH    ?V0 + 1
        CFI V1 Frame(CFA_SP, 5)
        CFI CFA_SP SP+-5
        ; Saved register size: 2
        ; Auto size: 0
        MOV     ?V0 + 0,#0x1
        MOV     ?V0 + 1,#0x0
        MOV     A,R2
        MOV     R0,#?V0 + 0
        LCALL   ?S_SHL
        MOV     R0,?V0 + 0
        MOV     A,R0
        CPL     A
        MOV     R4,A
        MOV     A,R1
        JZ      ??SetIOLevel_0
        DEC     A
        JZ      ??SetIOLevel_1
        DEC     A
        JZ      ??SetIOLevel_2
        SJMP    ??SetIOLevel_3
//  229     switch(group)
//  230     {
//  231       case 0:
//  232           if(value)
??SetIOLevel_0:
        MOV     A,R3
        JZ      ??SetIOLevel_4
//  233             P0 |= BIT_1(bit);
        MOV     A,R0
        ORL     0x80,A
        SJMP    ??SetIOLevel_3
//  234           else
//  235             P0 &= BIT_0(bit);
??SetIOLevel_4:
        MOV     A,R4
        ANL     0x80,A
        SJMP    ??SetIOLevel_3
//  236           break;
//  237       case 1:
//  238           if(value)
??SetIOLevel_1:
        MOV     A,R3
        JZ      ??SetIOLevel_5
//  239             P1 |= BIT_1(bit);
        MOV     A,R0
        ORL     0x90,A
        SJMP    ??SetIOLevel_3
//  240           else
//  241             P1 &= BIT_0(bit);
??SetIOLevel_5:
        MOV     A,R4
        ANL     0x90,A
        SJMP    ??SetIOLevel_3
//  242           break;
//  243       case 2:
//  244           if(value)
??SetIOLevel_2:
        MOV     A,R3
        JZ      ??SetIOLevel_6
//  245             P2 |= BIT_1(bit);
        MOV     A,R0
        ORL     0xa0,A
        SJMP    ??SetIOLevel_3
//  246           else
//  247             P2 &= BIT_0(bit);
??SetIOLevel_6:
        MOV     A,R4
        ANL     0xa0,A
//  248           break;
//  249       default:
//  250           break;
//  251     }
//  252 }
??SetIOLevel_3:
        SJMP    ?Subroutine0
        CFI EndBlock cfiBlock8
        REQUIRE _A_P0
        REQUIRE _A_P1
        REQUIRE _A_P2
//  253 
//  254 /***********************************************************
//  255 **  函数名称: IOIntteruptSet
//  256 **  实现功能: 设置端口中断触发方式
//  257 **  入口参数: group:Port;
//  258 **            bit:Bit;
//  259 **            trigger:(Rising:上升沿触发; Falling:下降沿触发;)
//  260 **  返回结果: None
//  261 ***********************************************************/

        RSEG BANKED_CODE:CODE:NOROOT(0)
//  262 void IOIntteruptSet(uint8 group, uint8 bit, IntSel_t trigger)
IOIntteruptSet:
        CFI Block cfiBlock9 Using cfiCommon0
        CFI Function IOIntteruptSet
        CODE
//  263 {
        PUSH    ?V0 + 0
        CFI V0 Frame(CFA_SP, 4)
        CFI CFA_SP SP+-4
        PUSH    ?V0 + 1
        CFI V1 Frame(CFA_SP, 5)
        CFI CFA_SP SP+-5
        ; Saved register size: 2
        ; Auto size: 0
        MOV     ?V0 + 0,#0x1
        MOV     ?V0 + 1,#0x0
        MOV     A,R2
        MOV     R0,#?V0 + 0
        LCALL   ?S_SHL
        MOV     R0,?V0 + 0
        MOV     A,R0
        CPL     A
        MOV     R4,A
        MOV     A,R1
        JZ      ??IOIntteruptSet_0
        DEC     A
        JZ      ??IOIntteruptSet_1
        DEC     A
        JZ      ??IOIntteruptSet_2
        SJMP    ??IOIntteruptSet_3
//  264     switch(group)
//  265     {
//  266     case 0:
//  267         IEN1 |= BIT_1(5); //P0总中断允许
??IOIntteruptSet_0:
        SETB    0xb8.5
//  268         switch(trigger)
        MOV     A,R3
        JZ      ??IOIntteruptSet_4
        DEC     A
        JZ      ??IOIntteruptSet_5
        DEC     A
        JZ      ??IOIntteruptSet_6
        SJMP    ??IOIntteruptSet_3
//  269         {
//  270             case None:    P0IEN &= BIT_0( bit ); break;   //单独位中断屏蔽
??IOIntteruptSet_4:
        MOV     A,R4
        ANL     0xab,A
        SJMP    ??IOIntteruptSet_3
//  271             case Rising:  P0IEN |= BIT_1( bit );  PICTL &= BIT_0(0); break;
??IOIntteruptSet_5:
        MOV     A,R0
        ORL     0xab,A
        ANL     0x8c,#0xfe
        SJMP    ??IOIntteruptSet_3
//  272             case Falling: P0IEN |= BIT_1( bit );  PICTL |= BIT_1(0); break;
??IOIntteruptSet_6:
        MOV     A,R0
        ORL     0xab,A
        ORL     0x8c,#0x1
        SJMP    ??IOIntteruptSet_3
//  273             default : break;
//  274         }
//  275         break;
//  276     case 1:
//  277         IEN2 |= BIT_1(4); //P1总中断允许
??IOIntteruptSet_1:
        ORL     0x9a,#0x10
//  278         switch(trigger)
        MOV     A,R3
        JZ      ??IOIntteruptSet_7
        DEC     A
        JZ      ??IOIntteruptSet_8
        DEC     A
        JZ      ??IOIntteruptSet_9
        SJMP    ??IOIntteruptSet_3
//  279         {
//  280             case None:    P1IEN &= BIT_0( bit ); break;   //单独位中断屏蔽
??IOIntteruptSet_7:
        MOV     A,R4
        ANL     0x8d,A
        SJMP    ??IOIntteruptSet_3
//  281             case Rising:
//  282             {
//  283                 if( bit <= 3 )
??IOIntteruptSet_8:
        MOV     A,R2
        CLR     C
        SUBB    A,#0x4
        MOV     A,R0
        ORL     0x8d,A
        JNC     ??IOIntteruptSet_10
//  284                 {
//  285                     P1IEN |= BIT_1( bit );  PICTL &= BIT_0(1); break;
        ANL     0x8c,#0xfd
        SJMP    ??IOIntteruptSet_3
//  286                 }
//  287                 else if( bit >= 4 )
//  288                 {
//  289                     P1IEN |= BIT_1( bit );  PICTL &= BIT_0(2); break;
??IOIntteruptSet_10:
        ANL     0x8c,#0xfb
        SJMP    ??IOIntteruptSet_3
//  290                 }
//  291             }
//  292             case Falling:
//  293             {
//  294                 if( bit <= 3 )
??IOIntteruptSet_9:
        MOV     A,R2
        CLR     C
        SUBB    A,#0x4
        MOV     A,R0
        ORL     0x8d,A
        JNC     ??IOIntteruptSet_11
//  295                 {
//  296                     P1IEN |= BIT_1( bit );  PICTL |= BIT_1(1); break;
        ORL     0x8c,#0x2
        SJMP    ??IOIntteruptSet_3
//  297                 }
//  298                 else if( bit >= 4 )
//  299                 {
//  300                     P1IEN |= BIT_1( bit );  PICTL |= BIT_1(2); break;
??IOIntteruptSet_11:
        ORL     0x8c,#0x4
        SJMP    ??IOIntteruptSet_3
//  301                 }
//  302             }
//  303             default : break;
//  304         }
//  305         break;
//  306     case 2:
//  307         IEN2 |= BIT_1(1); //P2总中断允许
??IOIntteruptSet_2:
        ORL     0x9a,#0x2
//  308         switch(trigger)
        MOV     A,R3
        JZ      ??IOIntteruptSet_12
        DEC     A
        JZ      ??IOIntteruptSet_13
        DEC     A
        JZ      ??IOIntteruptSet_14
        SJMP    ??IOIntteruptSet_3
//  309         {
//  310             case None:    P2IEN &= BIT_0( bit ); break;   //单独位中断屏蔽
??IOIntteruptSet_12:
        MOV     A,R4
        ANL     0xac,A
        SJMP    ??IOIntteruptSet_3
//  311             case Rising:  P2IEN |= BIT_1( bit );  PICTL &= BIT_0(3); break;
??IOIntteruptSet_13:
        MOV     A,R0
        ORL     0xac,A
        ANL     0x8c,#0xf7
        SJMP    ??IOIntteruptSet_3
//  312             case Falling: P2IEN |= BIT_1( bit );  PICTL |= BIT_1(3); break;
??IOIntteruptSet_14:
        MOV     A,R0
        ORL     0xac,A
        ORL     0x8c,#0x8
//  313             default : break;
//  314         }
//  315         break;
//  316     }
//  317 }
??IOIntteruptSet_3:
        LJMP    ?Subroutine0 & 0xFFFF
        CFI EndBlock cfiBlock9
        REQUIRE _A_IEN1
        REQUIRE P0IEN
        REQUIRE PICTL
        REQUIRE IEN2
        REQUIRE P1IEN
        REQUIRE P2IEN

        RSEG BANK_RELAYS:CODE:REORDER:NOROOT(0)
??SystemClockSet?relay:
        LCALL   ?BDISPATCH
        DATA
        DC24    SystemClockSet

        RSEG BANK_RELAYS:CODE:REORDER:NOROOT(0)
??delay_10ms?relay:
        LCALL   ?BDISPATCH
        DATA
        DC24    delay_10ms

        RSEG BANK_RELAYS:CODE:REORDER:NOROOT(0)
??LED_4_5_PortInit?relay:
        LCALL   ?BDISPATCH
        DATA
        DC24    LED_4_5_PortInit

        RSEG BANK_RELAYS:CODE:REORDER:NOROOT(0)
??LED_Flash?relay:
        LCALL   ?BDISPATCH
        DATA
        DC24    LED_Flash

        RSEG BANK_RELAYS:CODE:REORDER:NOROOT(0)
??SetIOInput?relay:
        LCALL   ?BDISPATCH
        DATA
        DC24    SetIOInput

        RSEG BANK_RELAYS:CODE:REORDER:NOROOT(0)
??SetIOOutput?relay:
        LCALL   ?BDISPATCH
        DATA
        DC24    SetIOOutput

        RSEG BANK_RELAYS:CODE:REORDER:NOROOT(0)
??GetIOLevel?relay:
        LCALL   ?BDISPATCH
        DATA
        DC24    GetIOLevel

        RSEG BANK_RELAYS:CODE:REORDER:NOROOT(0)
??SetIOLevel?relay:
        LCALL   ?BDISPATCH
        DATA
        DC24    SetIOLevel

        RSEG BANK_RELAYS:CODE:REORDER:NOROOT(0)
??IOIntteruptSet?relay:
        LCALL   ?BDISPATCH
        DATA
        DC24    IOIntteruptSet

        END
// 
// 624 bytes in segment BANKED_CODE
//  54 bytes in segment BANK_RELAYS
//  20 bytes in segment SFR_AN
// 
// 678 bytes of CODE memory
//   0 bytes of DATA memory (+ 20 bytes shared)
//
//Errors: none
//Warnings: none
