///////////////////////////////////////////////////////////////////////////////
//                                                                            /
// IAR C/C++ Compiler V8.10.3.10338/W32 for 8051        16/Dec/2014  18:18:09 /
// Copyright 2004-2011 IAR Systems AB.                                        /
//                                                                            /
//    Core               =  plain                                             /
//    Code model         =  banked                                            /
//    Data model         =  large                                             /
//    Calling convention =  xdata reentrant                                   /
//    Constant location  =  data_rom                                          /
//    Dptr setup         =  1,16                                              /
//    Source file        =  E:\Zigbee-timer\Texas Instruments\Projects\zstack /
//                          \Samples\MyfirstAPP\Source\Light.c                /
//    Command line       =  -f "E:\Zigbee-timer\Texas                         /
//                          Instruments\Projects\zstack\Samples\MyfirstAPP\CC /
//                          2530DB\..\..\..\Tools\CC2530DB\f8wEndev.cfg"      /
//                          (-DCPU32MHZ -DROOT=__near_func -DBLINK_LEDS) -f   /
//                          "E:\Zigbee-timer\Texas Instruments\Projects\zstac /
//                          k\Samples\MyfirstAPP\CC2530DB\..\..\..\Tools\CC25 /
//                          30DB\f8wConfig.cfg" (-DSECURE=0                   /
//                          -DZG_SECURE_DYNAMIC=0 -DREFLECTOR                 /
//                          -DDEFAULT_CHANLIST=0x02000000                     /
//                          -DZDAPP_CONFIG_PAN_ID=0xA1B2                      /
//                          -DNWK_START_DELAY=100 -DEXTENDED_JOINING_RANDOM_M /
//                          ASK=0x007F -DBEACON_REQUEST_DELAY=100             /
//                          -DBEACON_REQ_DELAY_MASK=0x00FF                    /
//                          -DROUTE_EXPIRY_TIME=30 -DAPSC_ACK_WAIT_DURATION_P /
//                          OLLED=3000 -DNWK_INDIRECT_MSG_TIMEOUT=7           /
//                          -DMAX_RREQ_ENTRIES=8 -DAPSC_MAX_FRAME_RETRIES=3   /
//                          -DNWK_MAX_DATA_RETRIES=2                          /
//                          -DMAX_POLL_FAILURE_RETRIES=2 -DMAX_BCAST=9        /
//                          -DAPS_MAX_GROUPS=16 -DMAX_RTG_ENTRIES=40          /
//                          -DNWK_MAX_BINDING_ENTRIES=4                       /
//                          -DMAX_BINDING_CLUSTER_IDS=4                       /
//                          "-DDEFAULT_KEY={0x01, 0x03, 0x05, 0x07, 0x09,     /
//                          0x0B, 0x0D, 0x0F, 0x00, 0x02, 0x04, 0x06, 0x08,   /
//                          0x0A, 0x0C, 0x0D}" -DMAC_MAX_FRAME_SIZE=116       /
//                          "-DCONST=const __code" -DGENERIC=__generic        /
//                          -DRFD_RCVC_ALWAYS_ON=FALSE -DPOLL_RATE=1000       /
//                          -DQUEUED_POLL_RATE=100 -DRESPONSE_POLL_RATE=100)  /
//                          -DREJOIN_POLL_RATE=440 "E:\Zigbee-timer\Texas     /
//                          Instruments\Projects\zstack\Samples\MyfirstAPP\So /
//                          urce\Light.c" -D ZIGBEEPRO -D NWK_AUTO_POLL -D    /
//                          ZTOOL_P1 -D MT_TASK -D MT_SYS_FUNC -D             /
//                          MT_ZDO_FUNC -D LCD_SUPPORTED=DEBUG -D             /
//                          xPOWER_SAVING -lC "E:\Zigbee-timer\Texas          /
//                          Instruments\Projects\zstack\Samples\MyfirstAPP\CC /
//                          2530DB\EndDeviceEB-Pro\List\" -lA                 /
//                          "E:\Zigbee-timer\Texas Instruments\Projects\zstac /
//                          k\Samples\MyfirstAPP\CC2530DB\EndDeviceEB-Pro\Lis /
//                          t\" --diag_suppress Pe001,Pa010 -o                /
//                          "E:\Zigbee-timer\Texas Instruments\Projects\zstac /
//                          k\Samples\MyfirstAPP\CC2530DB\EndDeviceEB-Pro\Obj /
//                          \" -e --debug --core=plain --dptr=16,1            /
//                          --data_model=large --code_model=banked            /
//                          --calling_convention=xdata_reentrant              /
//                          --place_constants=data_rom --nr_virtual_regs 8    /
//                          -I "E:\Zigbee-timer\Texas                         /
//                          Instruments\Projects\zstack\Samples\MyfirstAPP\CC /
//                          2530DB\" -I "E:\Zigbee-timer\Texas                /
//                          Instruments\Projects\zstack\Samples\MyfirstAPP\CC /
//                          2530DB\..\SOURCE\" -I "E:\Zigbee-timer\Texas      /
//                          Instruments\Projects\zstack\Samples\MyfirstAPP\CC /
//                          2530DB\..\..\..\ZMAIN\TI2530DB\" -I               /
//                          "E:\Zigbee-timer\Texas Instruments\Projects\zstac /
//                          k\Samples\MyfirstAPP\CC2530DB\..\..\..\..\..\COMP /
//                          ONENTS\MT\" -I "E:\Zigbee-timer\Texas             /
//                          Instruments\Projects\zstack\Samples\MyfirstAPP\CC /
//                          2530DB\..\..\..\..\..\COMPONENTS\HAL\INCLUDE\"    /
//                          -I "E:\Zigbee-timer\Texas                         /
//                          Instruments\Projects\zstack\Samples\MyfirstAPP\CC /
//                          2530DB\..\..\..\..\..\COMPONENTS\HAL\TARGET\CC253 /
//                          0EB\" -I "E:\Zigbee-timer\Texas                   /
//                          Instruments\Projects\zstack\Samples\MyfirstAPP\CC /
//                          2530DB\..\..\..\..\..\COMPONENTS\OSAL\MCU\CCSOC\" /
//                           -I "E:\Zigbee-timer\Texas                        /
//                          Instruments\Projects\zstack\Samples\MyfirstAPP\CC /
//                          2530DB\..\..\..\..\..\COMPONENTS\OSAL\INCLUDE\"   /
//                          -I "E:\Zigbee-timer\Texas                         /
//                          Instruments\Projects\zstack\Samples\MyfirstAPP\CC /
//                          2530DB\..\..\..\..\..\COMPONENTS\STACK\AF\" -I    /
//                          "E:\Zigbee-timer\Texas Instruments\Projects\zstac /
//                          k\Samples\MyfirstAPP\CC2530DB\..\..\..\..\..\COMP /
//                          ONENTS\STACK\NWK\" -I "E:\Zigbee-timer\Texas      /
//                          Instruments\Projects\zstack\Samples\MyfirstAPP\CC /
//                          2530DB\..\..\..\..\..\COMPONENTS\STACK\SEC\" -I   /
//                          "E:\Zigbee-timer\Texas Instruments\Projects\zstac /
//                          k\Samples\MyfirstAPP\CC2530DB\..\..\..\..\..\COMP /
//                          ONENTS\STACK\SAPI\" -I "E:\Zigbee-timer\Texas     /
//                          Instruments\Projects\zstack\Samples\MyfirstAPP\CC /
//                          2530DB\..\..\..\..\..\COMPONENTS\STACK\SYS\" -I   /
//                          "E:\Zigbee-timer\Texas Instruments\Projects\zstac /
//                          k\Samples\MyfirstAPP\CC2530DB\..\..\..\..\..\COMP /
//                          ONENTS\STACK\ZDO\" -I "E:\Zigbee-timer\Texas      /
//                          Instruments\Projects\zstack\Samples\MyfirstAPP\CC /
//                          2530DB\..\..\..\..\..\COMPONENTS\ZMAC\F8W\" -I    /
//                          "E:\Zigbee-timer\Texas Instruments\Projects\zstac /
//                          k\Samples\MyfirstAPP\CC2530DB\..\..\..\..\..\COMP /
//                          ONENTS\ZMAC\" -I "E:\Zigbee-timer\Texas           /
//                          Instruments\Projects\zstack\Samples\MyfirstAPP\CC /
//                          2530DB\..\..\..\..\..\COMPONENTS\SERVICES\SADDR\" /
//                           -I "E:\Zigbee-timer\Texas                        /
//                          Instruments\Projects\zstack\Samples\MyfirstAPP\CC /
//                          2530DB\..\..\..\..\..\COMPONENTS\SERVICES\SDATA\" /
//                           -I "E:\Zigbee-timer\Texas                        /
//                          Instruments\Projects\zstack\Samples\MyfirstAPP\CC /
//                          2530DB\..\..\..\..\..\COMPONENTS\MAC\INCLUDE\"    /
//                          -I "E:\Zigbee-timer\Texas                         /
//                          Instruments\Projects\zstack\Samples\MyfirstAPP\CC /
//                          2530DB\..\..\..\..\..\COMPONENTS\MAC\HIGH_LEVEL\" /
//                           -I "E:\Zigbee-timer\Texas                        /
//                          Instruments\Projects\zstack\Samples\MyfirstAPP\CC /
//                          2530DB\..\..\..\..\..\COMPONENTS\MAC\LOW_LEVEL\sr /
//                          f04\" -I "E:\Zigbee-timer\Texas                   /
//                          Instruments\Projects\zstack\Samples\MyfirstAPP\CC /
//                          2530DB\..\..\..\..\..\COMPONENTS\MAC\LOW_LEVEL\sr /
//                          f04\SINGLE_CHIP\" -Ohz --require_prototypes       /
//    List file          =  E:\Zigbee-timer\Texas Instruments\Projects\zstack /
//                          \Samples\MyfirstAPP\CC2530DB\EndDeviceEB-Pro\List /
//                          \Light.s51                                        /
//                                                                            /
//                                                                            /
///////////////////////////////////////////////////////////////////////////////

        NAME Light

        RTMODEL "__SystemLibrary", "CLib"
        RTMODEL "__calling_convention", "xdata_reentrant"
        RTMODEL "__code_model", "banked"
        RTMODEL "__core", "plain"
        RTMODEL "__data_model", "large"
        RTMODEL "__dptr_size", "16"
        RTMODEL "__extended_stack", "disabled"
        RTMODEL "__location_for_constants", "data"
        RTMODEL "__number_of_dptrs", "1"
        RTMODEL "__rt_version", "1"

        RSEG DOVERLAY:DATA:NOROOT(0)
        RSEG IOVERLAY:IDATA:NOROOT(0)
        RSEG ISTACK:IDATA:NOROOT(0)
        RSEG PSTACK:XDATA:NOROOT(0)
        RSEG XSTACK:XDATA:NOROOT(0)

        EXTERN ?BANKED_ENTER_XDATA
        EXTERN ?BANKED_LEAVE_XDATA
        EXTERN ?BDISPATCH
        EXTERN ?BRET
        EXTERN ?FLT_MUL
        EXTERN ?FLT_SUB
        EXTERN ?FLT_TO_L
        EXTERN ?L_MOV_TO_X
        EXTERN ?L_MOV_X
        EXTERN ?S_SHL
        EXTERN ?UL_TO_FLT
        EXTERN ?V0
        EXTERN __INIT_XDATA_Z

        PUBLIC ??InitialAD?relay
        FUNCTION ??InitialAD?relay,0203H
        PUBLIC ??Light_GetAdc?relay
        FUNCTION ??Light_GetAdc?relay,0203H
        PUBWEAK ADCCFG
        PUBWEAK ADCCON1
        PUBWEAK ADCCON3
        PUBWEAK ADCH
        PUBWEAK ADCL
        PUBLIC InitialAD
        FUNCTION InitialAD,0203H
        ARGFRAME XSTACK, 0, STACK
        PUBLIC Light_GetAdc
        FUNCTION Light_GetAdc,0203H
        ARGFRAME XSTACK, 0, STACK
        LOCFRAME ISTACK, 4, STACK
        LOCFRAME XSTACK, 16, STACK
        PUBWEAK P0DIR
        PUBWEAK __Constant_3b800000
        PUBWEAK __Constant_42c80000
        PUBLIC adc
        PUBLIC adc_value
        PUBLIC temp
        PUBLIC v
        
        CFI Names cfiNames0
        CFI StackFrame CFA_SP SP IDATA
        CFI StackFrame CFA_PSP16 PSP16 XDATA
        CFI StackFrame CFA_XSP16 XSP16 XDATA
        CFI StaticOverlayFrame CFA_IOVERLAY IOVERLAY
        CFI StaticOverlayFrame CFA_DOVERLAY DOVERLAY
        CFI Resource `PSW.CY`:1, `B.BR0`:1, `B.BR1`:1, `B.BR2`:1, `B.BR3`:1
        CFI Resource `B.BR4`:1, `B.BR5`:1, `B.BR6`:1, `B.BR7`:1, `VB.BR8`:1
        CFI Resource `VB.BR9`:1, `VB.BR10`:1, `VB.BR11`:1, `VB.BR12`:1
        CFI Resource `VB.BR13`:1, `VB.BR14`:1, `VB.BR15`:1, VB:8, B:8, A:8
        CFI Resource PSW:8, DPL0:8, DPH0:8, R0:8, R1:8, R2:8, R3:8, R4:8, R5:8
        CFI Resource R6:8, R7:8, V0:8, V1:8, V2:8, V3:8, V4:8, V5:8, V6:8, V7:8
        CFI Resource SP:8, PSPH:8, PSPL:8, PSP16:16, XSPH:8, XSPL:8, XSP16:16
        CFI VirtualResource ?RET:24
        CFI Resource ?BRET_EXT:8
        CFI VirtualResource ?RET_HIGH:8, ?RET_LOW:8
        CFI ResourceParts PSP16 PSPH, PSPL
        CFI ResourceParts XSP16 XSPH, XSPL
        CFI ResourceParts ?RET ?BRET_EXT, ?RET_HIGH, ?RET_LOW
        CFI EndNames cfiNames0
        
        CFI Common cfiCommon0 Using cfiNames0
        CFI CodeAlign 1
        CFI DataAlign -1
        CFI ReturnAddress ?RET CODE
        CFI CFA_DOVERLAY Used
        CFI CFA_IOVERLAY Used
        CFI CFA_SP SP+-3
        CFI CFA_PSP16 PSP16+0
        CFI CFA_XSP16 XSP16+0
        CFI `PSW.CY` SameValue
        CFI `B.BR0` SameValue
        CFI `B.BR1` SameValue
        CFI `B.BR2` SameValue
        CFI `B.BR3` SameValue
        CFI `B.BR4` SameValue
        CFI `B.BR5` SameValue
        CFI `B.BR6` SameValue
        CFI `B.BR7` SameValue
        CFI `VB.BR8` SameValue
        CFI `VB.BR9` SameValue
        CFI `VB.BR10` SameValue
        CFI `VB.BR11` SameValue
        CFI `VB.BR12` SameValue
        CFI `VB.BR13` SameValue
        CFI `VB.BR14` SameValue
        CFI `VB.BR15` SameValue
        CFI VB SameValue
        CFI B Undefined
        CFI A Undefined
        CFI PSW SameValue
        CFI DPL0 SameValue
        CFI DPH0 SameValue
        CFI R0 Undefined
        CFI R1 Undefined
        CFI R2 Undefined
        CFI R3 Undefined
        CFI R4 Undefined
        CFI R5 Undefined
        CFI R6 SameValue
        CFI R7 SameValue
        CFI V0 SameValue
        CFI V1 SameValue
        CFI V2 SameValue
        CFI V3 SameValue
        CFI V4 SameValue
        CFI V5 SameValue
        CFI V6 SameValue
        CFI V7 SameValue
        CFI PSPH Undefined
        CFI PSPL Undefined
        CFI XSPH Undefined
        CFI XSPL Undefined
        CFI ?RET Concat
        CFI ?BRET_EXT Frame(CFA_SP, 3)
        CFI ?RET_HIGH Frame(CFA_SP, 2)
        CFI ?RET_LOW Frame(CFA_SP, 1)
        CFI EndCommon cfiCommon0
        
InitialAD           SYMBOL "InitialAD"
??InitialAD?relay   SYMBOL "?relay", InitialAD
Light_GetAdc        SYMBOL "Light_GetAdc"
??Light_GetAdc?relay SYMBOL "?relay", Light_GetAdc

// E:\Zigbee-timer\Texas Instruments\Projects\zstack\Samples\MyfirstAPP\Source\Light.c
//    1 #include <ioCC2530.h>

        ASEGN SFR_AN:DATA:NOROOT,0b4H
// unsigned char volatile __sfr ADCCON1
ADCCON1:
        DATA8
        DS 1

        ASEGN SFR_AN:DATA:NOROOT,0b6H
// unsigned char volatile __sfr ADCCON3
ADCCON3:
        DATA8
        DS 1

        ASEGN SFR_AN:DATA:NOROOT,0baH
// unsigned char volatile __sfr ADCL
ADCL:
        DATA8
        DS 1

        ASEGN SFR_AN:DATA:NOROOT,0bbH
// unsigned char volatile __sfr ADCH
ADCH:
        DATA8
        DS 1

        ASEGN SFR_AN:DATA:NOROOT,0f2H
// unsigned char volatile __sfr ADCCFG
ADCCFG:
        DATA8
        DS 1

        ASEGN SFR_AN:DATA:NOROOT,0fdH
// unsigned char volatile __sfr P0DIR
P0DIR:
        DATA8
        DS 1
//    2 #include "light.h"
//    3 #include "hal_types.h"
//    4 
//    5 
//    6 //#include "hal_lcd.h"
//    7 
//    8 //#define uint unsigned int
//    9 //#define uchar unsigned char
//   10 
//   11 
//   12 
//   13 //#define led1 P1_0
//   14 //#define led2 P1_1
//   15 //#define led3 P1_2
//   16 //#define led4 P1_3
//   17 

        RSEG XDATA_Z:XDATA:NOROOT(0)
        DATA16
//   18 unsigned char temp[2];
temp:
        DS 2
        REQUIRE __INIT_XDATA_Z

        RSEG XDATA_Z:XDATA:NOROOT(0)
        DATA16
//   19 unsigned short adc=0;
adc:
        DS 2
        REQUIRE __INIT_XDATA_Z

        RSEG XDATA_Z:XDATA:NOROOT(0)
        DATA8
//   20 unsigned char  adc_value =0;
adc_value:
        DS 1
        REQUIRE __INIT_XDATA_Z

        RSEG XDATA_Z:XDATA:NOROOT(0)
        DATA32
//   21 float v;
v:
        DS 4
        REQUIRE __INIT_XDATA_Z
//   22 //uint8 ge,shi;;
//   23 
//   24 //unsigned char ASCII[16] = "0123456789ABCDEF";
//   25 
//   26 //延时子函数
//   27 //void Delay(uint n)  
//   28 //{
//   29 //     uint tt;
//   30 //     for(tt=0;tt<n;tt++);
//   31 //     for(tt=0;tt<n;tt++);
//   32 //     for(tt=0;tt<n;tt++);
//   33  //    for(tt=0;tt<n;tt++);
//   34  //    for(tt=0;tt<n;tt++);
//   35 //}
//   36 
//   37 
//   38 
//   39 //LED灯初始化
//   40 //void led_init(void)
//   41 //{
//   42  //  //P1为普通 I/O 口
//   43 //   P1SEL =0x00; 
//   44 //   // P1.0 P1.1 P1.2 P1.3 输出
//   45 //   P1DIR = 0x0F;          
//   46    //关闭LED1
//   47 //   led1=1;
//   48    //关闭LED2
//   49  //  led2=1;
//   50    //关闭LED3
//   51 //   led3=1;
//   52    //关闭LED4
//   53 //   led4=1;
//   54    
//   55 //}
//   56 
//   57 
//   58 /****************************************************************
//   59 *函数功能 ：初始化ADC						*
//   60 *入口参数 ：无					        	*
//   61 *返 回 值 ：无							*
//   62 *说    明 ：参考电压AVDD，转换对象是1/3AVDD			*
//   63 ****************************************************************/
//   64 

        RSEG BANKED_CODE:CODE:NOROOT(0)
//   65 void InitialAD( void )  
InitialAD:
        CFI Block cfiBlock0 Using cfiCommon0
        CFI Function InitialAD
        CODE
//   66      {
        ; Saved register size: 0
        ; Auto size: 0
//   67         P0DIR &= ~(1<<7); 
        ANL     0xfd,#0x7f
//   68         ADCH &= 0X00;
        MOV     A,0xbb
        MOV     0xbb,#0x0
//   69         ADCCFG |=  (1<<7);
        ORL     0xf2,#0x80
//   70         ADCCON3 = 0xa7;
        MOV     0xb6,#-0x59
//   71         
//   72         ADCCON1 = 0X30;	
        MOV     0xb4,#0x30
//   73     
//   74         //启动A/D
//   75         ADCCON1 |= 0X40;	
        ORL     0xb4,#0x40
//   76         
//   77 
//   78      }
        LJMP    ?BRET
        CFI EndBlock cfiBlock0
        REQUIRE P0DIR
        REQUIRE ADCH
        REQUIRE ADCCFG
        REQUIRE ADCCON3
        REQUIRE ADCCON1
//   79 
//   80 //主函数

        RSEG BANKED_CODE:CODE:NOROOT(0)
//   81 unsigned char Light_GetAdc(void)  
Light_GetAdc:
        CFI Block cfiBlock1 Using cfiCommon0
        CFI Function Light_GetAdc
        CODE
//   82 {
        MOV     A,#-0x10
        LCALL   ?BANKED_ENTER_XDATA
        CFI R6 load(1, XDATA, add(CFA_XSP16, literal(-16)))
        CFI VB load(1, XDATA, add(CFA_XSP16, literal(-15)))
        CFI V0 load(1, XDATA, add(CFA_XSP16, literal(-14)))
        CFI V1 load(1, XDATA, add(CFA_XSP16, literal(-13)))
        CFI V2 load(1, XDATA, add(CFA_XSP16, literal(-12)))
        CFI V3 load(1, XDATA, add(CFA_XSP16, literal(-11)))
        CFI V4 load(1, XDATA, add(CFA_XSP16, literal(-10)))
        CFI V5 load(1, XDATA, add(CFA_XSP16, literal(-9)))
        CFI V6 load(1, XDATA, add(CFA_XSP16, literal(-8)))
        CFI V7 load(1, XDATA, add(CFA_XSP16, literal(-7)))
        CFI R7 load(1, XDATA, add(CFA_XSP16, literal(-6)))
        CFI ?RET_LOW load(1, XDATA, add(CFA_XSP16, literal(-5)))
        CFI ?RET_HIGH load(1, XDATA, add(CFA_XSP16, literal(-4)))
        CFI ?BRET_EXT load(1, XDATA, add(CFA_XSP16, literal(-3)))
        CFI DPL0 load(1, XDATA, add(CFA_XSP16, literal(-2)))
        CFI DPH0 load(1, XDATA, add(CFA_XSP16, literal(-1)))
        CFI CFA_SP SP+0
        CFI CFA_XSP16 add(XSP16, 16)
        ; Saved register size: 16
        ; Auto size: 0
//   83 
//   84   //等待ADC转换完成
//   85       while(!(ADCCON1&0x80));
??Light_GetAdc_0:
        MOV     A,0xb4
        MOV     C,0xE0 /* A   */.7
        JNC     ??Light_GetAdc_0
//   86       
//   87             //转换完毕指示
//   88       temp[1] = ADCL;
        MOV     A,0xba
        MOV     DPTR,#temp + 1
        MOVX    @DPTR,A
//   89       temp[0] = ADCH;
        MOV     A,0xbb
        MOV     DPTR,#temp
        MOVX    @DPTR,A
//   90             
//   91       adc  =   (unsigned int)temp[1]>>5;
//   92       adc |= ( (unsigned int)temp[0] )<<3;
        INC     DPTR
        MOVX    A,@DPTR
        SWAP    A
        RRC     A
        ANL     A,#0x7
        MOV     R2,A
        MOV     DPTR,#temp
        MOVX    A,@DPTR
        MOV     ?V0 + 0,A
        MOV     ?V0 + 1,#0x0
        MOV     A,#0x3
        MOV     R0,#?V0 + 0
        LCALL   ?S_SHL
        MOV     A,R2
        ORL     A,?V0 + 0
        MOV     DPTR,#adc
        MOVX    @DPTR,A
        INC     DPTR
        MOV     A,?V0 + 1
        MOVX    @DPTR,A
//   93             
//   94       v = ((float)adc / (float)0x100);
        MOV     DPTR,#adc
        MOVX    A,@DPTR
        MOV     ?V0 + 0,A
        CLR     A
        MOV     ?V0 + 2,A
        MOV     ?V0 + 3,A
        MOV     R0,#?V0 + 0
        LCALL   ?UL_TO_FLT
        MOV     DPTR,#__Constant_3b800000
        MOV     R0,#?V0 + 4
        LCALL   ?L_MOV_X
        MOV     R0,#?V0 + 0
        MOV     R1,#?V0 + 4
        LCALL   ?FLT_MUL
        MOV     DPTR,#v
        MOV     R0,#?V0 + 0
        LCALL   ?L_MOV_TO_X
//   95       adc_value= (unsigned char)(100-v*100);
        MOV     ?V0 + 0,#0x0
        MOV     ?V0 + 1,#0x0
        MOV     ?V0 + 2,#-0x38
        PUSH    ?V0 + 0
        CFI CFA_SP SP+-1
        PUSH    ?V0 + 1
        CFI CFA_SP SP+-2
        PUSH    ?V0 + 2
        CFI CFA_SP SP+-3
        MOV     DPTR,#v
        MOV     R0,#?V0 + 4
        LCALL   ?L_MOV_X
        MOV     DPTR,#__Constant_42c80000
        MOV     R0,#?V0 + 0
        LCALL   ?L_MOV_X
        MOV     R0,#?V0 + 4
        MOV     R1,#?V0 + 0
        LCALL   ?FLT_MUL
        MOV     ?V0 + 3,#0x42
        POP     ?V0 + 2
        CFI CFA_SP SP+-2
        POP     ?V0 + 1
        CFI CFA_SP SP+-1
        POP     ?V0 + 0
        CFI CFA_SP SP+0
        MOV     R0,#?V0 + 0
        MOV     R1,#?V0 + 4
        LCALL   ?FLT_SUB
        MOV     R0,#?V0 + 0
        LCALL   ?FLT_TO_L
        MOV     A,?V0 + 0
        MOV     DPTR,#adc_value
        MOVX    @DPTR,A
//   96                           
//   97       return adc_value;
        MOV     R1,A
        MOV     R7,#0x8
        LJMP    ?BANKED_LEAVE_XDATA
        CFI EndBlock cfiBlock1
        REQUIRE ADCCON1
        REQUIRE ADCL
        REQUIRE ADCH
//   98       
//   99 }

        RSEG XDATA_ROM_C:CONST:REORDER:NOROOT(0)
        DATA32
__Constant_3b800000:
        DD 3B800000H

        RSEG XDATA_ROM_C:CONST:REORDER:NOROOT(0)
        DATA32
__Constant_42c80000:
        DD 42C80000H

        RSEG BANK_RELAYS:CODE:REORDER:NOROOT(0)
??InitialAD?relay:
        LCALL   ?BDISPATCH
        DATA
        DC24    InitialAD

        RSEG BANK_RELAYS:CODE:REORDER:NOROOT(0)
??Light_GetAdc?relay:
        LCALL   ?BDISPATCH
        DATA
        DC24    Light_GetAdc

        END
//  100 
//  101             //以6500为酒精0参考值
//  102             //if(6500 >= adc)
//  103            // {
//  104           //      adc = 0;
//  105           //  }
//  106            // else
//  107           //  {
//  108           //      adc -= 6500;
//  109            // }
//  110             
//  111             //转换成十进制：个十百千万
//  112          //   wan  = ASCII[adc/10000];
//  113          //   qian = ASCII[adc%10000/1000];
//  114          //   bai  = ASCII[adc%1000/100];
//  115          //   shi  = ASCII[adc%100/10];
//  116          //   ge   = ASCII[adc%10];
//  117             
//  118             //adc显示
//  119          //   loc(1,4);
//  120         //    write_data(wan);
//  121          //   write_data(qian);
//  122          //   write_data(bai);
//  123          //   write_data(shi);        
//  124          //   write_data(ge);   
//  125             
//  126             //星号条显示
//  127          //   adc  = adc/1320;
//  128             
//  129           //  loc(3,0);
//  130           //  print_LCDdata("                ");//清除第三行内容
//  131          //   loc(3,0);
//  132         //    for(j = 0;j < adc; j++)
//  133          //   {
//  134          //       write_data('*');
//  135          //   }
//  136             
//  137          //   led1 = ~led1;                       
//  138          //   Delay(50000);  	
//  139      
//  140      
//  141  
//  142 
//  143 
// 
// 190 bytes in segment BANKED_CODE
//  12 bytes in segment BANK_RELAYS
//   6 bytes in segment SFR_AN
//   8 bytes in segment XDATA_ROM_C
//   9 bytes in segment XDATA_Z
// 
// 202 bytes of CODE  memory
//   0 bytes of CONST memory (+ 8 bytes shared)
//   0 bytes of DATA  memory (+ 6 bytes shared)
//   9 bytes of XDATA memory
//
//Errors: none
//Warnings: none
