###############################################################################
#                                                                             #
# IAR C/C++ Compiler V8.10.3.10338/W32 for 8051         16/Dec/2014  18:18:07 #
# Copyright 2004-2011 IAR Systems AB.                                         #
#                                                                             #
#    Core               =  plain                                              #
#    Code model         =  banked                                             #
#    Data model         =  large                                              #
#    Calling convention =  xdata reentrant                                    #
#    Constant location  =  data_rom                                           #
#    Dptr setup         =  1,16                                               #
#    Source file        =  E:\Zigbee-timer\Texas Instruments\Components\mt\MT #
#                          _SYS.c                                             #
#    Command line       =  -f "E:\Zigbee-timer\Texas                          #
#                          Instruments\Projects\zstack\Samples\MyfirstAPP\CC2 #
#                          530DB\..\..\..\Tools\CC2530DB\f8wEndev.cfg"        #
#                          (-DCPU32MHZ -DROOT=__near_func -DBLINK_LEDS) -f    #
#                          "E:\Zigbee-timer\Texas Instruments\Projects\zstack #
#                          \Samples\MyfirstAPP\CC2530DB\..\..\..\Tools\CC2530 #
#                          DB\f8wConfig.cfg" (-DSECURE=0                      #
#                          -DZG_SECURE_DYNAMIC=0 -DREFLECTOR                  #
#                          -DDEFAULT_CHANLIST=0x02000000                      #
#                          -DZDAPP_CONFIG_PAN_ID=0xA1B2                       #
#                          -DNWK_START_DELAY=100 -DEXTENDED_JOINING_RANDOM_MA #
#                          SK=0x007F -DBEACON_REQUEST_DELAY=100               #
#                          -DBEACON_REQ_DELAY_MASK=0x00FF                     #
#                          -DROUTE_EXPIRY_TIME=30 -DAPSC_ACK_WAIT_DURATION_PO #
#                          LLED=3000 -DNWK_INDIRECT_MSG_TIMEOUT=7             #
#                          -DMAX_RREQ_ENTRIES=8 -DAPSC_MAX_FRAME_RETRIES=3    #
#                          -DNWK_MAX_DATA_RETRIES=2                           #
#                          -DMAX_POLL_FAILURE_RETRIES=2 -DMAX_BCAST=9         #
#                          -DAPS_MAX_GROUPS=16 -DMAX_RTG_ENTRIES=40           #
#                          -DNWK_MAX_BINDING_ENTRIES=4                        #
#                          -DMAX_BINDING_CLUSTER_IDS=4 "-DDEFAULT_KEY={0x01,  #
#                          0x03, 0x05, 0x07, 0x09, 0x0B, 0x0D, 0x0F, 0x00,    #
#                          0x02, 0x04, 0x06, 0x08, 0x0A, 0x0C, 0x0D}"         #
#                          -DMAC_MAX_FRAME_SIZE=116 "-DCONST=const __code"    #
#                          -DGENERIC=__generic -DRFD_RCVC_ALWAYS_ON=FALSE     #
#                          -DPOLL_RATE=1000 -DQUEUED_POLL_RATE=100            #
#                          -DRESPONSE_POLL_RATE=100) -DREJOIN_POLL_RATE=440   #
#                          "E:\Zigbee-timer\Texas Instruments\Components\mt\M #
#                          T_SYS.c" -D ZIGBEEPRO -D NWK_AUTO_POLL -D          #
#                          ZTOOL_P1 -D MT_TASK -D MT_SYS_FUNC -D MT_ZDO_FUNC  #
#                          -D LCD_SUPPORTED=DEBUG -D xPOWER_SAVING -lC        #
#                          "E:\Zigbee-timer\Texas Instruments\Projects\zstack #
#                          \Samples\MyfirstAPP\CC2530DB\EndDeviceEB-Pro\List\ #
#                          " -lA "E:\Zigbee-timer\Texas                       #
#                          Instruments\Projects\zstack\Samples\MyfirstAPP\CC2 #
#                          530DB\EndDeviceEB-Pro\List\" --diag_suppress       #
#                          Pe001,Pa010 -o "E:\Zigbee-timer\Texas              #
#                          Instruments\Projects\zstack\Samples\MyfirstAPP\CC2 #
#                          530DB\EndDeviceEB-Pro\Obj\" -e --debug             #
#                          --core=plain --dptr=16,1 --data_model=large        #
#                          --code_model=banked --calling_convention=xdata_ree #
#                          ntrant --place_constants=data_rom                  #
#                          --nr_virtual_regs 8 -I "E:\Zigbee-timer\Texas      #
#                          Instruments\Projects\zstack\Samples\MyfirstAPP\CC2 #
#                          530DB\" -I "E:\Zigbee-timer\Texas                  #
#                          Instruments\Projects\zstack\Samples\MyfirstAPP\CC2 #
#                          530DB\..\SOURCE\" -I "E:\Zigbee-timer\Texas        #
#                          Instruments\Projects\zstack\Samples\MyfirstAPP\CC2 #
#                          530DB\..\..\..\ZMAIN\TI2530DB\" -I                 #
#                          "E:\Zigbee-timer\Texas Instruments\Projects\zstack #
#                          \Samples\MyfirstAPP\CC2530DB\..\..\..\..\..\COMPON #
#                          ENTS\MT\" -I "E:\Zigbee-timer\Texas                #
#                          Instruments\Projects\zstack\Samples\MyfirstAPP\CC2 #
#                          530DB\..\..\..\..\..\COMPONENTS\HAL\INCLUDE\" -I   #
#                          "E:\Zigbee-timer\Texas Instruments\Projects\zstack #
#                          \Samples\MyfirstAPP\CC2530DB\..\..\..\..\..\COMPON #
#                          ENTS\HAL\TARGET\CC2530EB\" -I                      #
#                          "E:\Zigbee-timer\Texas Instruments\Projects\zstack #
#                          \Samples\MyfirstAPP\CC2530DB\..\..\..\..\..\COMPON #
#                          ENTS\OSAL\MCU\CCSOC\" -I "E:\Zigbee-timer\Texas    #
#                          Instruments\Projects\zstack\Samples\MyfirstAPP\CC2 #
#                          530DB\..\..\..\..\..\COMPONENTS\OSAL\INCLUDE\" -I  #
#                          "E:\Zigbee-timer\Texas Instruments\Projects\zstack #
#                          \Samples\MyfirstAPP\CC2530DB\..\..\..\..\..\COMPON #
#                          ENTS\STACK\AF\" -I "E:\Zigbee-timer\Texas          #
#                          Instruments\Projects\zstack\Samples\MyfirstAPP\CC2 #
#                          530DB\..\..\..\..\..\COMPONENTS\STACK\NWK\" -I     #
#                          "E:\Zigbee-timer\Texas Instruments\Projects\zstack #
#                          \Samples\MyfirstAPP\CC2530DB\..\..\..\..\..\COMPON #
#                          ENTS\STACK\SEC\" -I "E:\Zigbee-timer\Texas         #
#                          Instruments\Projects\zstack\Samples\MyfirstAPP\CC2 #
#                          530DB\..\..\..\..\..\COMPONENTS\STACK\SAPI\" -I    #
#                          "E:\Zigbee-timer\Texas Instruments\Projects\zstack #
#                          \Samples\MyfirstAPP\CC2530DB\..\..\..\..\..\COMPON #
#                          ENTS\STACK\SYS\" -I "E:\Zigbee-timer\Texas         #
#                          Instruments\Projects\zstack\Samples\MyfirstAPP\CC2 #
#                          530DB\..\..\..\..\..\COMPONENTS\STACK\ZDO\" -I     #
#                          "E:\Zigbee-timer\Texas Instruments\Projects\zstack #
#                          \Samples\MyfirstAPP\CC2530DB\..\..\..\..\..\COMPON #
#                          ENTS\ZMAC\F8W\" -I "E:\Zigbee-timer\Texas          #
#                          Instruments\Projects\zstack\Samples\MyfirstAPP\CC2 #
#                          530DB\..\..\..\..\..\COMPONENTS\ZMAC\" -I          #
#                          "E:\Zigbee-timer\Texas Instruments\Projects\zstack #
#                          \Samples\MyfirstAPP\CC2530DB\..\..\..\..\..\COMPON #
#                          ENTS\SERVICES\SADDR\" -I "E:\Zigbee-timer\Texas    #
#                          Instruments\Projects\zstack\Samples\MyfirstAPP\CC2 #
#                          530DB\..\..\..\..\..\COMPONENTS\SERVICES\SDATA\"   #
#                          -I "E:\Zigbee-timer\Texas                          #
#                          Instruments\Projects\zstack\Samples\MyfirstAPP\CC2 #
#                          530DB\..\..\..\..\..\COMPONENTS\MAC\INCLUDE\" -I   #
#                          "E:\Zigbee-timer\Texas Instruments\Projects\zstack #
#                          \Samples\MyfirstAPP\CC2530DB\..\..\..\..\..\COMPON #
#                          ENTS\MAC\HIGH_LEVEL\" -I "E:\Zigbee-timer\Texas    #
#                          Instruments\Projects\zstack\Samples\MyfirstAPP\CC2 #
#                          530DB\..\..\..\..\..\COMPONENTS\MAC\LOW_LEVEL\srf0 #
#                          4\" -I "E:\Zigbee-timer\Texas                      #
#                          Instruments\Projects\zstack\Samples\MyfirstAPP\CC2 #
#                          530DB\..\..\..\..\..\COMPONENTS\MAC\LOW_LEVEL\srf0 #
#                          4\SINGLE_CHIP\" -Ohz --require_prototypes          #
#    List file          =  E:\Zigbee-timer\Texas Instruments\Projects\zstack\ #
#                          Samples\MyfirstAPP\CC2530DB\EndDeviceEB-Pro\List\M #
#                          T_SYS.lst                                          #
#    Object file        =  E:\Zigbee-timer\Texas Instruments\Projects\zstack\ #
#                          Samples\MyfirstAPP\CC2530DB\EndDeviceEB-Pro\Obj\MT #
#                          _SYS.r51                                           #
#                                                                             #
#                                                                             #
###############################################################################

E:\Zigbee-timer\Texas Instruments\Components\mt\MT_SYS.c
      1          /***************************************************************************************************
      2            Filename:       MT.c
      3            Revised:        $Date: 2009-03-12 16:25:22 -0700 (Thu, 12 Mar 2009) $
      4            Revision:       $Revision: 19404 $
      5          
      6            Description:   MonitorTest
      7          
      8            Copyright 2007 Texas Instruments Incorporated. All rights reserved.
      9          
     10            IMPORTANT: Your use of this Software is limited to those specific rights
     11            granted under the terms of a software license agreement between the user
     12            who downloaded the software, his/her employer (which must be your employer)
     13            and Texas Instruments Incorporated (the "License").  You may not use this
     14            Software unless you agree to abide by the terms of the License. The License
     15            limits your use, and you acknowledge, that the Software may not be modified,
     16            copied or distributed unless embedded on a Texas Instruments microcontroller
     17            or used solely and exclusively in conjunction with a Texas Instruments radio
     18            frequency transceiver, which is integrated into your product.  Other than for
     19            the foregoing purpose, you may not use, reproduce, copy, prepare derivative
     20            works of, modify, distribute, perform, display or sell this Software and/or
     21            its documentation for any purpose.
     22          
     23            YOU FURTHER ACKNOWLEDGE AND AGREE THAT THE SOFTWARE AND DOCUMENTATION ARE
     24            PROVIDED “AS IS” WITHOUT WARRANTY OF ANY KIND, EITHER EXPRESS OR IMPLIED,
     25            INCLUDING WITHOUT LIMITATION, ANY WARRANTY OF MERCHANTABILITY, TITLE,
     26            NON-INFRINGEMENT AND FITNESS FOR A PARTICULAR PURPOSE. IN NO EVENT SHALL
     27            TEXAS INSTRUMENTS OR ITS LICENSORS BE LIABLE OR OBLIGATED UNDER CONTRACT,
     28            NEGLIGENCE, STRICT LIABILITY, CONTRIBUTION, BREACH OF WARRANTY, OR OTHER
     29            LEGAL EQUITABLE THEORY ANY DIRECT OR INDIRECT DAMAGES OR EXPENSES
     30            INCLUDING BUT NOT LIMITED TO ANY INCIDENTAL, SPECIAL, INDIRECT, PUNITIVE
     31            OR CONSEQUENTIAL DAMAGES, LOST PROFITS OR LOST DATA, COST OF PROCUREMENT
     32            OF SUBSTITUTE GOODS, TECHNOLOGY, SERVICES, OR ANY CLAIMS BY THIRD PARTIES
     33            (INCLUDING BUT NOT LIMITED TO ANY DEFENSE THEREOF), OR OTHER SIMILAR COSTS.
     34          
     35            Should you have any questions regarding your right to use this Software,
     36            contact Texas Instruments Incorporated at www.TI.com.
     37          
     38           ***************************************************************************************************/
     39          
     40          /***************************************************************************************************
     41           * INCLUDES
     42           ***************************************************************************************************/
     43          #include "ZComDef.h"
     44          #include "MT.h"
     45          #include "MT_SYS.h"
     46          #include "MT_VERSION.h"
     47          #include "nwk_util.h"
     48          #include "OSAL_NV.h"
     49          #include "Onboard.h"  /* This is here because RAM read/write macros need it */

   \                                 In  segment SFR_AN, at 0x9d
   \   unsigned char volatile __sfr SLEEPSTA
   \                     SLEEPSTA:
   \   000000                DS 1

   \                                 In  segment SFR_AN, at 0xa8
   \   union <unnamed> volatile __sfr _A_IEN0
   \                     _A_IEN0:
   \   000000                DS 1

   \                                 In  segment SFR_AN, at 0xc9
   \   unsigned char volatile __sfr WDCTL
   \                     WDCTL:
   \   000000                DS 1
     50          #include "hal_adc.h"
     51          #include "ZGlobals.h"
     52          
     53          #include "Osal_Memory.h"
     54          #include "OSAL.h"
     55          
     56          /***************************************************************************************************
     57           * MACROS
     58           ***************************************************************************************************/
     59          
     60          #define MT_SYS_DEVICE_INFO_RESPONSE_LEN 14
     61          #define MT_NV_ITEM_MAX_LENGTH           250
     62          
     63          /***************************************************************************************************
     64           * CONSTANT
     65           ***************************************************************************************************/

   \                                 In  segment XDATA_ROM_C, align 1
     66          const uint16 MT_SysOsalEventId [] = {
   \                     MT_SysOsalEventId:
   \   000000   0008         DW 2048
   \   000002   0004         DW 1024
   \   000004   0002         DW 512
   \   000006   0001         DW 256
     67                                                MT_SYS_OSAL_EVENT_0,
     68                                                MT_SYS_OSAL_EVENT_1,
     69                                                MT_SYS_OSAL_EVENT_2,
     70                                                MT_SYS_OSAL_EVENT_3
     71                                              };
     72          
     73          typedef enum {
     74            GPIO_DIR,
     75            GPIO_TRI,
     76            GPIO_SET,
     77            GPIO_CLR,
     78            GPIO_TOG,
     79            GPIO_GET,
     80            GPIO_HiD = 0x12
     81          } GPIO_Op_t;
     82          
     83          #define GPIO_MASK  0x33
     84          
     85          /***************************************************************************************************
     86           * EXTERNAL FUNCTIONS
     87           ***************************************************************************************************/
     88          extern uint16 HalAdcReadVoltage(void);
     89          extern uint16 HalAdcReadTemperature(void);
     90          
     91          /***************************************************************************************************
     92           * LOCAL FUNCTIONS
     93           ***************************************************************************************************/
     94          #if defined (MT_SYS_FUNC)
     95          void MT_SysReset(uint8 *pBuf);
     96          void MT_SysPing(void);
     97          void MT_SysVersion(void);
     98          void MT_SysSetExtAddr(uint8 *pBuf);
     99          void MT_SysGetExtAddr(void);
    100          void MT_SysOsalNVWrite(uint8 *pBuf);
    101          void MT_SysOsalNVRead(uint8 *pBuf);
    102          void MT_SysOsalStartTimer(uint8 *pBuf);
    103          void MT_SysOsalStopTimer(uint8 *pBuf);
    104          void MT_SysRandom(void);
    105          void MT_SysAdcRead(uint8 *pBuf);
    106          void MT_SysGpio(uint8 *pBuf);
    107          void MT_SysGetDeviceInfo(uint8 *pBuf);
    108          #endif /* MT_SYS_FUNC */
    109          
    110          #if defined (MT_SYS_FUNC)
    111          /***************************************************************************************************
    112           * @fn      MT_SysProcessing
    113           *
    114           * @brief   Process all the SYS commands that are issued by test tool
    115           *
    116           * @param   pBuf - pointer to the msg buffer
    117           *
    118           *          | LEN  | CMD0  | CMD1  |  DATA  |
    119           *          |  1   |   1   |   1   |  0-255 |
    120           *
    121           * @return  status
    122           ***************************************************************************************************/

   \                                 In  segment BANKED_CODE, align 1, keep-with-next
    123          uint8 MT_SysCommandProcessing(uint8 *pBuf)
   \                     MT_SysCommandProcessing:
    124          {
   \   000000   74F7         MOV     A,#-0x9
   \   000002   12....       LCALL   ?BANKED_ENTER_XDATA
   \   000005                ; Saved register size: 9
   \   000005                ; Auto size: 0
    125            uint8 status = MT_RPC_SUCCESS;
   \   000005   7E00         MOV     R6,#0x0
    126          
    127            switch (pBuf[MT_RPC_POS_CMD1])
   \   000007   8A82         MOV     DPL,R2
   \   000009   8B83         MOV     DPH,R3
   \   00000B   A3           INC     DPTR
   \   00000C   A3           INC     DPTR
   \   00000D   E0           MOVX    A,@DPTR
   \   00000E   6028         JZ      ??MT_SysCommandProcessing_0
   \   000010   14           DEC     A
   \   000011   602A         JZ      ??MT_SysCommandProcessing_1
   \   000013   14           DEC     A
   \   000014   602C         JZ      ??MT_SysCommandProcessing_2
   \   000016   14           DEC     A
   \   000017   602E         JZ      ??MT_SysCommandProcessing_3
   \   000019   14           DEC     A
   \   00001A   6030         JZ      ??MT_SysCommandProcessing_4
   \   00001C   24FC         ADD     A,#-0x4
   \   00001E   6031         JZ      ??MT_SysCommandProcessing_5
   \   000020   14           DEC     A
   \   000021   6033         JZ      ??MT_SysCommandProcessing_6
   \   000023   14           DEC     A
   \   000024   6035         JZ      ??MT_SysCommandProcessing_7
   \   000026   14           DEC     A
   \   000027   6037         JZ      ??MT_SysCommandProcessing_8
   \   000029   14           DEC     A
   \   00002A   6039         JZ      ??MT_SysCommandProcessing_9
   \   00002C   14           DEC     A
   \   00002D   603B         JZ      ??MT_SysCommandProcessing_10
   \   00002F   14           DEC     A
   \   000030   603D         JZ      ??MT_SysCommandProcessing_11
   \   000032   248E         ADD     A,#-0x72
   \   000034   6040         JZ      ??MT_SysCommandProcessing_12
   \   000036   803C         SJMP    ??MT_SysCommandProcessing_13
    128            {
    129              case MT_SYS_RESET_REQ:
    130                MT_SysReset(pBuf);
   \                     ??MT_SysCommandProcessing_0:
   \   000038                ; Setup parameters for call to function MT_SysReset
   \   000038   12....       LCALL   ??MT_SysReset?relay
    131                break;
   \   00003B   8039         SJMP    ??MT_SysCommandProcessing_12
    132          
    133              case MT_SYS_PING:
    134                MT_SysPing();
   \                     ??MT_SysCommandProcessing_1:
   \   00003D                ; Setup parameters for call to function MT_SysPing
   \   00003D   12....       LCALL   ??MT_SysPing?relay
    135                break;
   \   000040   8034         SJMP    ??MT_SysCommandProcessing_12
    136          
    137              case MT_SYS_VERSION:
    138                MT_SysVersion();
   \                     ??MT_SysCommandProcessing_2:
   \   000042                ; Setup parameters for call to function MT_SysVersion
   \   000042   12....       LCALL   ??MT_SysVersion?relay
    139                break;
   \   000045   802F         SJMP    ??MT_SysCommandProcessing_12
    140          
    141              case MT_SYS_SET_EXTADDR:
    142                MT_SysSetExtAddr(pBuf);
   \                     ??MT_SysCommandProcessing_3:
   \   000047                ; Setup parameters for call to function MT_SysSetExtAddr
   \   000047   12....       LCALL   ??MT_SysSetExtAddr?relay
    143                break;
   \   00004A   802A         SJMP    ??MT_SysCommandProcessing_12
    144          
    145              case MT_SYS_GET_EXTADDR:
    146                MT_SysGetExtAddr();
   \                     ??MT_SysCommandProcessing_4:
   \   00004C                ; Setup parameters for call to function MT_SysGetExtAddr
   \   00004C   12....       LCALL   ??MT_SysGetExtAddr?relay
    147                break;
   \   00004F   8025         SJMP    ??MT_SysCommandProcessing_12
    148          
    149              case MT_SYS_OSAL_NV_READ:
    150                MT_SysOsalNVRead(pBuf);
   \                     ??MT_SysCommandProcessing_5:
   \   000051                ; Setup parameters for call to function MT_SysOsalNVRead
   \   000051   12....       LCALL   ??MT_SysOsalNVRead?relay
    151                break;
   \   000054   8020         SJMP    ??MT_SysCommandProcessing_12
    152          
    153              case MT_SYS_OSAL_NV_WRITE:
    154                MT_SysOsalNVWrite(pBuf);
   \                     ??MT_SysCommandProcessing_6:
   \   000056                ; Setup parameters for call to function MT_SysOsalNVWrite
   \   000056   12....       LCALL   ??MT_SysOsalNVWrite?relay
    155                break;
   \   000059   801B         SJMP    ??MT_SysCommandProcessing_12
    156          
    157              case MT_SYS_OSAL_START_TIMER:
    158                MT_SysOsalStartTimer(pBuf);
   \                     ??MT_SysCommandProcessing_7:
   \   00005B                ; Setup parameters for call to function MT_SysOsalStartTimer
   \   00005B   12....       LCALL   ??MT_SysOsalStartTimer?relay
    159                break;
   \   00005E   8016         SJMP    ??MT_SysCommandProcessing_12
    160          
    161              case MT_SYS_OSAL_STOP_TIMER:
    162                MT_SysOsalStopTimer(pBuf);
   \                     ??MT_SysCommandProcessing_8:
   \   000060                ; Setup parameters for call to function MT_SysOsalStopTimer
   \   000060   12....       LCALL   ??MT_SysOsalStopTimer?relay
    163                break;
   \   000063   8011         SJMP    ??MT_SysCommandProcessing_12
    164          
    165              case MT_SYS_RANDOM:
    166                MT_SysRandom();
   \                     ??MT_SysCommandProcessing_9:
   \   000065                ; Setup parameters for call to function MT_SysRandom
   \   000065   12....       LCALL   ??MT_SysRandom?relay
    167                break;
   \   000068   800C         SJMP    ??MT_SysCommandProcessing_12
    168          
    169              case MT_SYS_ADC_READ:
    170                MT_SysAdcRead(pBuf);
   \                     ??MT_SysCommandProcessing_10:
   \   00006A                ; Setup parameters for call to function MT_SysAdcRead
   \   00006A   12....       LCALL   ??MT_SysAdcRead?relay
    171                break;
   \   00006D   8007         SJMP    ??MT_SysCommandProcessing_12
    172          
    173              case MT_SYS_GPIO:
    174                MT_SysGpio(pBuf);
   \                     ??MT_SysCommandProcessing_11:
   \   00006F                ; Setup parameters for call to function MT_SysGpio
   \   00006F   12....       LCALL   ??MT_SysGpio?relay
    175                break;
   \   000072   8002         SJMP    ??MT_SysCommandProcessing_12
    176          
    177              case MT_SYS_RESET_IND:
    178                //TBD
    179                break;
    180          
    181              default:
    182                status = MT_RPC_ERR_COMMAND_ID;
   \                     ??MT_SysCommandProcessing_13:
   \   000074   0E           INC     R6
   \   000075   0E           INC     R6
    183                break;
    184            }
    185          
    186            return status;
   \                     ??MT_SysCommandProcessing_12:
   \   000076   EE           MOV     A,R6
   \   000077   F9           MOV     R1,A
   \   000078   02....       LJMP    ??Subroutine15_0 & 0xFFFF
    187          }

   \                                 In  segment BANKED_CODE, align 1, keep-with-next
   \                     ??Subroutine15_0:
   \   000000   7F01         MOV     R7,#0x1
   \   000002   02....       LJMP    ?BANKED_LEAVE_XDATA
    188          
    189          /***************************************************************************************************
    190           * @fn      MT_SysReset
    191           *
    192           * @brief   Reset/reprogram the device.
    193           * @param   typID: 0=reset, 1=serial bootloader
    194           *
    195           * @return  None
    196           ***************************************************************************************************/

   \                                 In  segment BANKED_CODE, align 1, keep-with-next
    197          void MT_SysReset(uint8 *pBuf)
   \                     MT_SysReset:
    198          {
   \   000000                ; Saved register size: 0
   \   000000                ; Auto size: 0
    199            (void)pBuf;  // Intentionally unreferenced parameter
    200            SystemReset();  /* Restart this program */
   \   000000   C2AF         CLR     0xa8.7
   \   000002   75C9AB       MOV     0xc9,#-0x55
   \   000005   75C95B       MOV     0xc9,#0x5b
   \                     ??MT_SysReset_0:
   \   000008   00           NOP
   \   000009   80FD         SJMP    ??MT_SysReset_0
   \   00000B                REQUIRE _A_IEN0
   \   00000B                REQUIRE WDCTL
    201          }
    202          
    203          /***************************************************************************************************
    204           * @fn      MT_SysPing
    205           *
    206           * @brief   Process the Ping command
    207           *
    208           * @param   None
    209           *
    210           * @return  None
    211           ***************************************************************************************************/

   \                                 In  segment BANKED_CODE, align 1, keep-with-next
    212          void MT_SysPing(void)
   \                     MT_SysPing:
    213          {
   \   000000   C082         PUSH    DPL
   \   000002   C083         PUSH    DPH
   \   000004                ; Saved register size: 2
   \   000004                ; Auto size: 2
   \   000004   74FE         MOV     A,#-0x2
   \   000006   12....       LCALL   ?ALLOC_XSTACK8
    214            uint16 tmp16;
    215            uint8 retArray[2];
    216          
    217            /* Build Capabilities */
    218            tmp16 = MT_CAP_SYS | MT_CAP_MAC | MT_CAP_NWK | MT_CAP_AF | MT_CAP_ZDO|
    219                    MT_CAP_SAPI | MT_CAP_UTIL | MT_CAP_DEBUG | MT_CAP_APP | MT_CAP_ZOAD;
    220          
    221            /* Convert to high byte first into temp buffer */
    222            retArray[0] = LO_UINT16( tmp16 );
   \   000009   85..82       MOV     DPL,?XSP + 0
   \   00000C   85..83       MOV     DPH,?XSP + 1
   \   00000F   7411         MOV     A,#0x11
   \   000011   F0           MOVX    @DPTR,A
    223            retArray[1] = HI_UINT16( tmp16 );
   \   000012   7401         MOV     A,#0x1
   \   000014   12....       LCALL   ?XSTACK_DISP0_8
   \   000017   E4           CLR     A
   \   000018   12....       LCALL   ?Subroutine4 & 0xFFFF
    224          
    225            /* Build and send back the response */
    226            MT_BuildAndSendZToolResponse(((uint8)MT_RPC_CMD_SRSP | (uint8)MT_RPC_SYS_SYS), MT_SYS_PING,
    227                                          sizeof (tmp16), retArray );
   \                     ??CrossCallReturnLabel_0:
   \   00001B   7A01         MOV     R2,#0x1
   \   00001D   7961         MOV     R1,#0x61
   \   00001F   12....       LCALL   ??MT_BuildAndSendZToolResponse?relay
    228          }
   \   000022   7402         MOV     A,#0x2
   \   000024   02....       LJMP    ?Subroutine1 & 0xFFFF

   \                                 In  segment BANKED_CODE, align 1, keep-with-next
   \                     ?Subroutine4:
   \   000000   12....       LCALL   ?Subroutine8 & 0xFFFF
   \                     ??CrossCallReturnLabel_5:
   \   000003   7B02         MOV     R3,#0x2
   \   000005   22           RET

   \                                 In  segment BANKED_CODE, align 1, keep-with-next
   \                     ?Subroutine1:
   \   000000   12....       LCALL   ?DEALLOC_XSTACK8
   \   000003                REQUIRE ??Subroutine13_0
   \   000003                ; // Fall through to label ??Subroutine13_0

   \                                 In  segment BANKED_CODE, align 1, keep-with-next
   \                     ??Subroutine13_0:
   \   000000   D083         POP     DPH
   \   000002   D082         POP     DPL
   \   000004   02....       LJMP    ?BRET

   \                                 In  segment BANKED_CODE, align 1, keep-with-next
   \                     ?Subroutine8:
   \   000000   F0           MOVX    @DPTR,A
   \   000001                ; Setup parameters for call to function MT_BuildAndSendZToolResponse
   \   000001                ; Setup parameters for call to function MT_BuildAndSendZToolResponse
   \   000001                ; Setup parameters for call to function MT_BuildAndSendZToolResponse
   \   000001                ; Setup parameters for call to function MT_BuildAndSendZToolResponse
   \   000001   85..82       MOV     DPL,?XSP + 0
   \   000004   85..83       MOV     DPH,?XSP + 1
   \   000007   AC82         MOV     R4,DPL
   \   000009   AD83         MOV     R5,DPH
   \   00000B   22           RET
    229          
    230          /***************************************************************************************************
    231           * @fn      MT_SysVersion
    232           *
    233           * @brief   Process the Version command
    234           *
    235           * @param   None
    236           *
    237           * @return  None
    238           ***************************************************************************************************/

   \                                 In  segment BANKED_CODE, align 1, keep-with-next
    239          void MT_SysVersion(void)
   \                     MT_SysVersion:
    240          {
   \   000000   C082         PUSH    DPL
   \   000002   C083         PUSH    DPH
   \   000004                ; Saved register size: 2
   \   000004                ; Auto size: 0
    241            byte *verStr = (byte *)MTVersionString;
    242            uint8 respLen = sizeof(MTVersionString);
    243          
    244            /* Build and send back the response */
    245            MT_BuildAndSendZToolResponse(((uint8)MT_RPC_CMD_SRSP | (uint8)MT_RPC_SYS_SYS), MT_SYS_VERSION,
    246                                         respLen, verStr);
   \   000004                ; Setup parameters for call to function MT_BuildAndSendZToolResponse
   \   000004   7C..         MOV     R4,#MTVersionString & 0xff
   \   000006   7D..         MOV     R5,#(MTVersionString >> 8) & 0xff
   \   000008   7B05         MOV     R3,#0x5
   \   00000A   7A02         MOV     R2,#0x2
   \   00000C   7961         MOV     R1,#0x61
   \   00000E   12....       LCALL   ??MT_BuildAndSendZToolResponse?relay
    247          }
   \   000011   02....       LJMP    ??Subroutine13_0 & 0xFFFF
    248          
    249          /***************************************************************************************************
    250           * @fn      MT_SysSetExtAddr
    251           *
    252           * @brief   Set the Extended Address
    253           *
    254           * @param   pBuf
    255           *
    256           * @return  None
    257           ***************************************************************************************************/

   \                                 In  segment BANKED_CODE, align 1, keep-with-next
    258          void MT_SysSetExtAddr(uint8 *pBuf)
   \                     MT_SysSetExtAddr:
    259          {
   \   000000   74F6         MOV     A,#-0xa
   \   000002   12....       LCALL   ?BANKED_ENTER_XDATA
   \   000005                ; Saved register size: 10
   \   000005                ; Auto size: 1
   \   000005   74FF         MOV     A,#-0x1
   \   000007   12....       LCALL   ?ALLOC_XSTACK8
    260            uint8 retValue = ZFailure;
   \   00000A   85..82       MOV     DPL,?XSP + 0
   \   00000D   85..83       MOV     DPH,?XSP + 1
   \   000010   7401         MOV     A,#0x1
   \   000012   F0           MOVX    @DPTR,A
    261            uint8 cmdId;
    262          
    263            /* parse header */
    264            cmdId = pBuf[MT_RPC_POS_CMD1];
   \   000013   8A82         MOV     DPL,R2
   \   000015   8B83         MOV     DPH,R3
   \   000017   A3           INC     DPTR
   \   000018   A3           INC     DPTR
   \   000019   E0           MOVX    A,@DPTR
   \   00001A   FE           MOV     R6,A
    265            pBuf += MT_RPC_FRAME_HDR_SZ;
   \   00001B   EA           MOV     A,R2
   \   00001C   2403         ADD     A,#0x3
   \   00001E   F5..         MOV     ?V0 + 0,A
   \   000020   EB           MOV     A,R3
   \   000021   3400         ADDC    A,#0x0
   \   000023   F5..         MOV     ?V0 + 1,A
    266          
    267            if ( ZMacSetReq(ZMacExtAddr, pBuf) == ZMacSuccess )
   \   000025                ; Setup parameters for call to function ZMacSetReq
   \   000025   0A           INC     R2
   \   000026   0A           INC     R2
   \   000027   0A           INC     R2
   \   000028   FB           MOV     R3,A
   \   000029   79E2         MOV     R1,#-0x1e
   \   00002B   12....       LCALL   ??ZMacSetReq?relay
   \   00002E   E9           MOV     A,R1
   \   00002F   7028         JNZ     ??MT_SysSetExtAddr_0
    268            {
    269              retValue = osal_nv_write(ZCD_NV_EXTADDR, 0, Z_EXTADDR_LEN, pBuf);
   \   000031                ; Setup parameters for call to function osal_nv_write
   \   000031   78..         MOV     R0,#?V0 + 0
   \   000033   12....       LCALL   ?PUSH_XSTACK_I_TWO
   \   000036   75..08       MOV     ?V0 + 0,#0x8
   \   000039   75..00       MOV     ?V0 + 1,#0x0
   \   00003C   78..         MOV     R0,#?V0 + 0
   \   00003E   12....       LCALL   ?PUSH_XSTACK_I_TWO
   \   000041   7C00         MOV     R4,#0x0
   \   000043   7D00         MOV     R5,#0x0
   \   000045   7A01         MOV     R2,#0x1
   \   000047   7B00         MOV     R3,#0x0
   \   000049   12....       LCALL   ??osal_nv_write?relay
   \   00004C   7404         MOV     A,#0x4
   \   00004E   12....       LCALL   ?DEALLOC_XSTACK8
   \   000051   E9           MOV     A,R1
   \   000052   85..82       MOV     DPL,?XSP + 0
   \   000055   85..83       MOV     DPH,?XSP + 1
   \   000058   F0           MOVX    @DPTR,A
    270            }
    271          
    272            /* Build and send back the response */
    273            MT_BuildAndSendZToolResponse(((uint8)MT_RPC_CMD_SRSP | (uint8)MT_RPC_SYS_SYS), cmdId, 1, &retValue);
   \                     ??MT_SysSetExtAddr_0:
   \   000059                ; Setup parameters for call to function MT_BuildAndSendZToolResponse
   \   000059   85..82       MOV     DPL,?XSP + 0
   \   00005C   85..83       MOV     DPH,?XSP + 1
   \   00005F   AC82         MOV     R4,DPL
   \   000061   AD83         MOV     R5,DPH
   \   000063   7B01         MOV     R3,#0x1
   \   000065   EE           MOV     A,R6
   \   000066   12....       LCALL   ?Subroutine6 & 0xFFFF
    274          
    275          }
   \                     ??CrossCallReturnLabel_12:
   \   000069   02....       LJMP    ??Subroutine12_0 & 0xFFFF

   \                                 In  segment BANKED_CODE, align 1, keep-with-next
   \                     ?Subroutine6:
   \   000000   FA           MOV     R2,A
   \   000001                REQUIRE ??Subroutine9_0
   \   000001                ; // Fall through to label ??Subroutine9_0

   \                                 In  segment BANKED_CODE, align 1, keep-with-next
   \                     ??Subroutine9_0:
   \   000000   7961         MOV     R1,#0x61
   \   000002                REQUIRE ??Subroutine10_0
   \   000002                ; // Fall through to label ??Subroutine10_0

   \                                 In  segment BANKED_CODE, align 1, keep-with-next
   \                     ??Subroutine10_0:
   \   000000   12....       LCALL   ??MT_BuildAndSendZToolResponse?relay
   \   000003   7401         MOV     A,#0x1
   \   000005   22           RET

   \                                 In  segment BANKED_CODE, align 1, keep-with-next
   \                     ??Subroutine12_0:
   \   000000   12....       LCALL   ?DEALLOC_XSTACK8
   \   000003   7F02         MOV     R7,#0x2
   \   000005   02....       LJMP    ?BANKED_LEAVE_XDATA
    276          
    277          /***************************************************************************************************
    278           * @fn      MT_SysVersion
    279           *
    280           * @brief   Process the Version command
    281           *
    282           * @param   None
    283           *
    284           * @return  None
    285           ***************************************************************************************************/

   \                                 In  segment BANKED_CODE, align 1, keep-with-next
    286          void MT_SysGetExtAddr(void)
   \                     MT_SysGetExtAddr:
    287          {
   \   000000   C082         PUSH    DPL
   \   000002   C083         PUSH    DPH
   \   000004                ; Saved register size: 2
   \   000004                ; Auto size: 8
   \   000004   74F8         MOV     A,#-0x8
   \   000006   12....       LCALL   ?ALLOC_XSTACK8
    288            uint8 extAddr[Z_EXTADDR_LEN];
    289          
    290            ZMacGetReq( ZMacExtAddr, extAddr );
   \   000009                ; Setup parameters for call to function ZMacGetReq
   \   000009   85..82       MOV     DPL,?XSP + 0
   \   00000C   85..83       MOV     DPH,?XSP + 1
   \   00000F   AA82         MOV     R2,DPL
   \   000011   AB83         MOV     R3,DPH
   \   000013   79E2         MOV     R1,#-0x1e
   \   000015   12....       LCALL   ??ZMacGetReq?relay
    291          
    292            /* Build and send back the response */
    293            MT_BuildAndSendZToolResponse(((uint8)MT_RPC_CMD_SRSP | (uint8)MT_RPC_SYS_SYS), MT_SYS_GET_EXTADDR,
    294                                         Z_EXTADDR_LEN, extAddr);
   \   000018                ; Setup parameters for call to function MT_BuildAndSendZToolResponse
   \   000018   85..82       MOV     DPL,?XSP + 0
   \   00001B   85..83       MOV     DPH,?XSP + 1
   \   00001E   AC82         MOV     R4,DPL
   \   000020   AD83         MOV     R5,DPH
   \   000022   7B08         MOV     R3,#0x8
   \   000024   7A04         MOV     R2,#0x4
   \   000026   7961         MOV     R1,#0x61
   \   000028   12....       LCALL   ??MT_BuildAndSendZToolResponse?relay
    295          }
   \   00002B   7408         MOV     A,#0x8
   \   00002D   02....       LJMP    ?Subroutine1 & 0xFFFF
    296          
    297          /***************************************************************************************************
    298           * @fn      MT_SysOsalNVRead
    299           *
    300           * @brief  Read a NV value
    301           *
    302           * @param  uint8 pBuf - pointer to the data
    303           *
    304           * @return  None
    305           ***************************************************************************************************/

   \                                 In  segment BANKED_CODE, align 1, keep-with-next
    306          void MT_SysOsalNVRead(uint8 *pBuf)
   \                     MT_SysOsalNVRead:
    307          {
   \   000000   74F0         MOV     A,#-0x10
   \   000002   12....       LCALL   ?BANKED_ENTER_XDATA
   \   000005                ; Saved register size: 16
   \   000005                ; Auto size: 0
    308            uint16 nvId;
    309            uint8 nvItemLen=0, nvItemOffset=0;
    310            uint8 *pRetBuf=NULL;
    311            uint8 respLen, cmdId;
    312          
    313            /* parse header */
    314            cmdId = pBuf[MT_RPC_POS_CMD1];
   \   000005   8A82         MOV     DPL,R2
   \   000007   8B83         MOV     DPH,R3
   \   000009   A3           INC     DPTR
   \   00000A   A3           INC     DPTR
   \   00000B   E0           MOVX    A,@DPTR
   \   00000C   F5..         MOV     ?V0 + 7,A
    315            pBuf += MT_RPC_FRAME_HDR_SZ;
   \   00000E   12....       LCALL   ?Subroutine7 & 0xFFFF
    316          
    317            /* Get the ID */
    318            nvId = BUILD_UINT16(pBuf[0], pBuf[1]);
   \                     ??CrossCallReturnLabel_10:
   \   000011   FC           MOV     R4,A
   \   000012   A3           INC     DPTR
   \   000013   E0           MOVX    A,@DPTR
   \   000014   F9           MOV     R1,A
   \   000015   EC           MOV     A,R4
   \   000016   2400         ADD     A,#0x0
   \   000018   FE           MOV     R6,A
   \   000019   E4           CLR     A
   \   00001A   39           ADDC    A,R1
   \   00001B   FF           MOV     R7,A
    319            pBuf += sizeof(uint16);
    320          
    321            /* Calculate the offset */
    322            nvItemOffset = *pBuf;
   \   00001C   8A82         MOV     DPL,R2
   \   00001E   8B83         MOV     DPH,R3
   \   000020   A3           INC     DPTR
   \   000021   A3           INC     DPTR
   \   000022   E0           MOVX    A,@DPTR
   \   000023   F5..         MOV     ?V0 + 6,A
    323          
    324            nvItemLen = osal_nv_item_len(nvId);
   \   000025                ; Setup parameters for call to function osal_nv_item_len
   \   000025   EE           MOV     A,R6
   \   000026   FA           MOV     R2,A
   \   000027   EF           MOV     A,R7
   \   000028   FB           MOV     R3,A
   \   000029   12....       LCALL   ??osal_nv_item_len?relay
   \   00002C   EA           MOV     A,R2
   \   00002D   F5..         MOV     ?V0 + 0,A
    325          
    326            /* Return only 250 bytes max */
    327            if (nvItemLen > MT_NV_ITEM_MAX_LENGTH)
   \   00002F   C3           CLR     C
   \   000030   94FB         SUBB    A,#-0x5
   \   000032   4005         JC      ??MT_SysOsalNVRead_0
    328            {
    329              nvItemLen = MT_NV_ITEM_MAX_LENGTH;
   \   000034   75..FA       MOV     ?V0 + 0,#-0x6
   \   000037   8003         SJMP    ??MT_SysOsalNVRead_1
    330            }
    331          
    332            if ((nvItemLen > 0) && ((nvItemLen - nvItemOffset) > 0))
   \                     ??MT_SysOsalNVRead_0:
   \   000039   EA           MOV     A,R2
   \   00003A   6028         JZ      ??MT_SysOsalNVRead_2
   \                     ??MT_SysOsalNVRead_1:
   \   00003C   85....       MOV     ?V0 + 4,?V0 + 0
   \   00003F   85....       MOV     ?V0 + 2,?V0 + 6
   \   000042   E5..         MOV     A,?V0 + 4
   \   000044   C3           CLR     C
   \   000045   95..         SUBB    A,?V0 + 2
   \   000047   F8           MOV     R0,A
   \   000048   95E0         SUBB    A,0xE0 /* A   */
   \   00004A   F9           MOV     R1,A
   \   00004B   C3           CLR     C
   \   00004C   E8           MOV     A,R0
   \   00004D   9401         SUBB    A,#0x1
   \   00004F   E9           MOV     A,R1
   \   000050   9400         SUBB    A,#0x0
   \   000052   A2D2         MOV     C,0xD0 /* PSW */.2
   \   000054   65D0         XRL     A,PSW
   \   000056   33           RLC     A
   \   000057   400B         JC      ??MT_SysOsalNVRead_2
    333            {
    334              respLen = nvItemLen - nvItemOffset + 2;
   \   000059   E5..         MOV     A,?V0 + 0
   \   00005B   C3           CLR     C
   \   00005C   95..         SUBB    A,?V0 + 6
   \   00005E   2402         ADD     A,#0x2
   \   000060   F5..         MOV     ?V0 + 1,A
   \   000062   8003         SJMP    ??MT_SysOsalNVRead_3
    335            }
    336            else
    337            {
    338              respLen = 2;
   \                     ??MT_SysOsalNVRead_2:
   \   000064   75..02       MOV     ?V0 + 1,#0x2
    339            }
    340          
    341            pRetBuf = osal_mem_alloc(respLen);
   \                     ??MT_SysOsalNVRead_3:
   \   000067                ; Setup parameters for call to function osal_mem_alloc
   \   000067   85....       MOV     ?V0 + 2,?V0 + 1
   \   00006A   AA..         MOV     R2,?V0 + 2
   \   00006C   7B00         MOV     R3,#0x0
   \   00006E   12....       LCALL   ??osal_mem_alloc?relay
   \   000071   8A..         MOV     ?V0 + 2,R2
   \   000073   8B..         MOV     ?V0 + 3,R3
    342          
    343            if (pRetBuf != NULL)
   \   000075   EA           MOV     A,R2
   \   000076   45..         ORL     A,?V0 + 3
   \   000078   607B         JZ      ??MT_SysOsalNVRead_4
    344            {
    345              osal_memset(pRetBuf, 0, respLen);
   \   00007A                ; Setup parameters for call to function osal_memset
   \   00007A   85....       MOV     ?V0 + 4,?V0 + 1
   \   00007D   AC..         MOV     R4,?V0 + 4
   \   00007F   7D00         MOV     R5,#0x0
   \   000081   7900         MOV     R1,#0x0
   \   000083   12....       LCALL   ??osal_memset?relay
    346          
    347              /* Default to ZFailure */
    348              pRetBuf[0] = ZFailure;
   \   000086   85..82       MOV     DPL,?V0 + 2
   \   000089   85..83       MOV     DPH,?V0 + 3
   \   00008C   7401         MOV     A,#0x1
   \   00008E   F0           MOVX    @DPTR,A
   \   00008F   E5..         MOV     A,?V0 + 1
   \   000091   C3           CLR     C
   \   000092   9403         SUBB    A,#0x3
   \   000094   4048         JC      ??MT_SysOsalNVRead_5
    349          
    350              if (respLen > 2)
    351              {
    352                if (((osal_nv_read( nvId, (uint16)nvItemOffset, (uint16)nvItemLen, &pRetBuf[2])) == ZSUCCESS) && (respLen > 2))
   \   000096                ; Setup parameters for call to function osal_nv_read
   \   000096   E5..         MOV     A,?V0 + 2
   \   000098   2402         ADD     A,#0x2
   \   00009A   F5..         MOV     ?V0 + 4,A
   \   00009C   E5..         MOV     A,?V0 + 3
   \   00009E   3400         ADDC    A,#0x0
   \   0000A0   F5..         MOV     ?V0 + 5,A
   \   0000A2   78..         MOV     R0,#?V0 + 4
   \   0000A4   12....       LCALL   ?PUSH_XSTACK_I_TWO
   \   0000A7   85....       MOV     ?V0 + 4,?V0 + 0
   \   0000AA   75..00       MOV     ?V0 + 5,#0x0
   \   0000AD   78..         MOV     R0,#?V0 + 4
   \   0000AF   12....       LCALL   ?PUSH_XSTACK_I_TWO
   \   0000B2   85....       MOV     ?V0 + 4,?V0 + 6
   \   0000B5   AC..         MOV     R4,?V0 + 4
   \   0000B7   7D00         MOV     R5,#0x0
   \   0000B9   EE           MOV     A,R6
   \   0000BA   FA           MOV     R2,A
   \   0000BB   EF           MOV     A,R7
   \   0000BC   FB           MOV     R3,A
   \   0000BD   12....       LCALL   ??osal_nv_read?relay
   \   0000C0   7404         MOV     A,#0x4
   \   0000C2   12....       LCALL   ?DEALLOC_XSTACK8
   \   0000C5   E9           MOV     A,R1
   \   0000C6   7008         JNZ     ??MT_SysOsalNVRead_6
    353                {
    354                  pRetBuf[0] = ZSuccess;
   \   0000C8   85..82       MOV     DPL,?V0 + 2
   \   0000CB   85..83       MOV     DPH,?V0 + 3
   \   0000CE   E4           CLR     A
   \   0000CF   F0           MOVX    @DPTR,A
    355                }
    356                pRetBuf[1] = nvItemLen - nvItemOffset;
   \                     ??MT_SysOsalNVRead_6:
   \   0000D0   E5..         MOV     A,?V0 + 0
   \   0000D2   C3           CLR     C
   \   0000D3   95..         SUBB    A,?V0 + 6
   \   0000D5   85..82       MOV     DPL,?V0 + 2
   \   0000D8   85..83       MOV     DPH,?V0 + 3
   \   0000DB   A3           INC     DPTR
   \   0000DC   8002         SJMP    ??MT_SysOsalNVRead_7
    357              }
    358              else
    359              {
    360                pRetBuf[1] = 0;
   \                     ??MT_SysOsalNVRead_5:
   \   0000DE   A3           INC     DPTR
   \   0000DF   E4           CLR     A
   \                     ??MT_SysOsalNVRead_7:
   \   0000E0   F0           MOVX    @DPTR,A
    361              }
    362          
    363              /* Build and send back the response */
    364              MT_BuildAndSendZToolResponse(((uint8)MT_RPC_CMD_SRSP | (uint8)MT_RPC_SYS_SYS), cmdId, respLen, pRetBuf );
   \   0000E1                ; Setup parameters for call to function MT_BuildAndSendZToolResponse
   \   0000E1   AC..         MOV     R4,?V0 + 2
   \   0000E3   AD..         MOV     R5,?V0 + 3
   \   0000E5   AB..         MOV     R3,?V0 + 1
   \   0000E7   AA..         MOV     R2,?V0 + 7
   \   0000E9   7961         MOV     R1,#0x61
   \   0000EB   12....       LCALL   ??MT_BuildAndSendZToolResponse?relay
    365          
    366              osal_mem_free(pRetBuf);
   \   0000EE                ; Setup parameters for call to function osal_mem_free
   \   0000EE   AA..         MOV     R2,?V0 + 2
   \   0000F0   AB..         MOV     R3,?V0 + 3
   \   0000F2   12....       LCALL   ??osal_mem_free?relay
    367            }
    368          
    369          
    370          }
   \                     ??MT_SysOsalNVRead_4:
   \   0000F5   7F08         MOV     R7,#0x8
   \   0000F7   02....       LJMP    ?BANKED_LEAVE_XDATA

   \                                 In  segment BANKED_CODE, align 1, keep-with-next
   \                     ?Subroutine7:
   \   000000   EA           MOV     A,R2
   \   000001   2403         ADD     A,#0x3
   \   000003   0A           INC     R2
   \   000004   0A           INC     R2
   \   000005   0A           INC     R2
   \   000006   EB           MOV     A,R3
   \   000007   3400         ADDC    A,#0x0
   \   000009   FB           MOV     R3,A
   \   00000A   8A82         MOV     DPL,R2
   \   00000C   8B83         MOV     DPH,R3
   \   00000E   E0           MOVX    A,@DPTR
   \   00000F   22           RET
    371          
    372          /***************************************************************************************************
    373           * @fn      MT_SysOsalNVWrite
    374           *
    375           * @brief
    376           *
    377           * @param   uint8 pData - pointer to the data
    378           *
    379           * @return  None
    380           ***************************************************************************************************/

   \                                 In  segment BANKED_CODE, align 1, keep-with-next
    381          void MT_SysOsalNVWrite(uint8 *pBuf)
   \                     MT_SysOsalNVWrite:
    382          {
   \   000000   74F2         MOV     A,#-0xe
   \   000002   12....       LCALL   ?BANKED_ENTER_XDATA
   \   000005                ; Saved register size: 14
   \   000005                ; Auto size: 1
   \   000005   74FF         MOV     A,#-0x1
   \   000007   12....       LCALL   ?ALLOC_XSTACK8
    383            uint16 nvId;
    384            uint8 nvItemLen=0, nvItemOffset=0;
    385            uint8 retValue, cmdId;
    386          
    387            /* parse header */
    388            cmdId = pBuf[MT_RPC_POS_CMD1];
   \   00000A   8A82         MOV     DPL,R2
   \   00000C   8B83         MOV     DPH,R3
   \   00000E   A3           INC     DPTR
   \   00000F   A3           INC     DPTR
   \   000010   E0           MOVX    A,@DPTR
   \   000011   F5..         MOV     ?V0 + 3,A
    389            pBuf += MT_RPC_FRAME_HDR_SZ;
   \   000013   EA           MOV     A,R2
   \   000014   2403         ADD     A,#0x3
   \   000016   F5..         MOV     ?V0 + 4,A
   \   000018   EB           MOV     A,R3
   \   000019   3400         ADDC    A,#0x0
   \   00001B   F5..         MOV     ?V0 + 5,A
    390          
    391            /* Get the ID */
    392            nvId = BUILD_UINT16(pBuf[0], pBuf[1]);
   \   00001D   85..82       MOV     DPL,?V0 + 4
   \   000020   F583         MOV     DPH,A
   \   000022   E0           MOVX    A,@DPTR
   \   000023   FA           MOV     R2,A
   \   000024   A3           INC     DPTR
   \   000025   E0           MOVX    A,@DPTR
   \   000026   F8           MOV     R0,A
   \   000027   E4           CLR     A
   \   000028   C8           XCH     A,R0
   \   000029   F9           MOV     R1,A
   \   00002A   EA           MOV     A,R2
   \   00002B   2400         ADD     A,#0x0
   \   00002D   FE           MOV     R6,A
   \   00002E   E4           CLR     A
   \   00002F   39           ADDC    A,R1
   \   000030   FF           MOV     R7,A
    393            pBuf += sizeof(uint16);
   \   000031   E5..         MOV     A,?V0 + 4
   \   000033   2402         ADD     A,#0x2
   \   000035   F5..         MOV     ?V0 + 4,A
   \   000037   E5..         MOV     A,?V0 + 5
   \   000039   3400         ADDC    A,#0x0
    394          
    395            /* Calculate the offset */
    396            nvItemOffset = *pBuf++;
   \   00003B   85..82       MOV     DPL,?V0 + 4
   \   00003E   F583         MOV     DPH,A
   \   000040   E0           MOVX    A,@DPTR
   \   000041   F5..         MOV     ?V0 + 2,A
   \   000043   A3           INC     DPTR
    397          
    398            /* Calculate the length */
    399            nvItemLen = *pBuf++;
   \   000044   E0           MOVX    A,@DPTR
   \   000045   F9           MOV     R1,A
   \   000046   A3           INC     DPTR
   \   000047   8582..       MOV     ?V0 + 4,DPL
   \   00004A   8583..       MOV     ?V0 + 5,DPH
    400          
    401            /* Default to ZFailure */
    402            retValue = ZFailure;
   \   00004D   85..82       MOV     DPL,?XSP + 0
   \   000050   85..83       MOV     DPH,?XSP + 1
   \   000053   7401         MOV     A,#0x1
   \   000055   F0           MOVX    @DPTR,A
    403          
    404            /* Set the zGlobal value of this NV item. */
    405            zgSetItem( nvId, (uint16)nvItemLen, pBuf );
   \   000056   8982         MOV     DPL,R1
   \   000058   8582..       MOV     ?V0 + 0,DPL
   \   00005B   88..         MOV     ?V0 + 1,R0
   \   00005D                ; Setup parameters for call to function zgSetItem
   \   00005D   78..         MOV     R0,#?V0 + 4
   \   00005F   12....       LCALL   ?PUSH_XSTACK_I_TWO
   \   000062   AC..         MOV     R4,?V0 + 0
   \   000064   AD..         MOV     R5,?V0 + 1
   \   000066   EF           MOV     A,R7
   \   000067   FB           MOV     R3,A
   \   000068   12....       LCALL   ??zgSetItem?relay
   \   00006B   7402         MOV     A,#0x2
   \   00006D   12....       LCALL   ?DEALLOC_XSTACK8
    406          
    407            if ((osal_nv_write( nvId, (uint16)nvItemOffset, (uint16)nvItemLen, pBuf)) == ZSUCCESS)
   \   000070                ; Setup parameters for call to function osal_nv_write
   \   000070   78..         MOV     R0,#?V0 + 4
   \   000072   12....       LCALL   ?PUSH_XSTACK_I_TWO
   \   000075   78..         MOV     R0,#?V0 + 0
   \   000077   12....       LCALL   ?PUSH_XSTACK_I_TWO
   \   00007A   85....       MOV     ?V0 + 0,?V0 + 2
   \   00007D   AC..         MOV     R4,?V0 + 0
   \   00007F   7D00         MOV     R5,#0x0
   \   000081   EE           MOV     A,R6
   \   000082   FA           MOV     R2,A
   \   000083   EF           MOV     A,R7
   \   000084   FB           MOV     R3,A
   \   000085   12....       LCALL   ??osal_nv_write?relay
   \   000088   7404         MOV     A,#0x4
   \   00008A   12....       LCALL   ?DEALLOC_XSTACK8
   \   00008D   E9           MOV     A,R1
   \   00008E   7008         JNZ     ??MT_SysOsalNVWrite_0
    408            {
    409              retValue = ZSuccess;
   \   000090   85..82       MOV     DPL,?XSP + 0
   \   000093   85..83       MOV     DPH,?XSP + 1
   \   000096   E4           CLR     A
   \   000097   F0           MOVX    @DPTR,A
    410            }
    411          
    412            /* Build and send back the response */
    413            MT_BuildAndSendZToolResponse(((uint8)MT_RPC_CMD_SRSP | (uint8)MT_RPC_SYS_SYS), cmdId, 1, &retValue );
   \                     ??MT_SysOsalNVWrite_0:
   \   000098                ; Setup parameters for call to function MT_BuildAndSendZToolResponse
   \   000098   85..82       MOV     DPL,?XSP + 0
   \   00009B   85..83       MOV     DPH,?XSP + 1
   \   00009E   AC82         MOV     R4,DPL
   \   0000A0   AD83         MOV     R5,DPH
   \   0000A2   7B01         MOV     R3,#0x1
   \   0000A4   AA..         MOV     R2,?V0 + 3
   \   0000A6   12....       LCALL   ??Subroutine9_0 & 0xFFFF
    414          }
   \                     ??CrossCallReturnLabel_14:
   \   0000A9   12....       LCALL   ?DEALLOC_XSTACK8
   \   0000AC   7F06         MOV     R7,#0x6
   \   0000AE   02....       LJMP    ?BANKED_LEAVE_XDATA
    415          
    416          /***************************************************************************************************
    417           * @fn      MT_SysOsalStartTimer
    418           *
    419           * @brief
    420           *
    421           * @param   uint8 pData - pointer to the data
    422           *
    423           * @return  None
    424           ***************************************************************************************************/

   \                                 In  segment BANKED_CODE, align 1, keep-with-next
    425          void MT_SysOsalStartTimer(uint8 *pBuf)
   \                     MT_SysOsalStartTimer:
    426          {
   \   000000   74F7         MOV     A,#-0x9
   \   000002   12....       LCALL   ?BANKED_ENTER_XDATA
   \   000005                ; Saved register size: 9
   \   000005                ; Auto size: 1
   \   000005   74FF         MOV     A,#-0x1
   \   000007   12....       LCALL   ?ALLOC_XSTACK8
    427            uint16 eventId;
    428            uint8 retValue = ZFailure;
   \   00000A   12....       LCALL   ?Subroutine3 & 0xFFFF
    429            uint8 cmdId;
    430          
    431            /* parse header */
    432            cmdId = pBuf[MT_RPC_POS_CMD1];
    433            pBuf += MT_RPC_FRAME_HDR_SZ;
    434          
    435            if (*pBuf <= 3)
   \                     ??CrossCallReturnLabel_7:
   \   00000D   FF           MOV     R7,A
   \   00000E   C3           CLR     C
   \   00000F   9404         SUBB    A,#0x4
   \   000011   5021         JNC     ??MT_SysOsalStartTimer_0
    436            {
    437              eventId = (uint16) MT_SysOsalEventId[*pBuf];
    438              retValue = osal_start_timerEx(MT_TaskID, eventId, BUILD_UINT16(pBuf[1], pBuf[2]));
   \   000013                ; Setup parameters for call to function osal_start_timerEx
   \   000013   A3           INC     DPTR
   \   000014   E0           MOVX    A,@DPTR
   \   000015   FC           MOV     R4,A
   \   000016   8A82         MOV     DPL,R2
   \   000018   8B83         MOV     DPH,R3
   \   00001A   A3           INC     DPTR
   \   00001B   A3           INC     DPTR
   \   00001C   E0           MOVX    A,@DPTR
   \   00001D   F9           MOV     R1,A
   \   00001E   EC           MOV     A,R4
   \   00001F   2400         ADD     A,#0x0
   \   000021   E4           CLR     A
   \   000022   39           ADDC    A,R1
   \   000023   FD           MOV     R5,A
   \   000024   EF           MOV     A,R7
   \   000025   12....       LCALL   ?Subroutine5 & 0xFFFF
    439            }
   \                     ??CrossCallReturnLabel_3:
   \   000028   12....       LCALL   ??osal_start_timerEx?relay
   \   00002B   E9           MOV     A,R1
   \   00002C   85..82       MOV     DPL,?XSP + 0
   \   00002F   85..83       MOV     DPH,?XSP + 1
   \   000032   8008         SJMP    ??MT_SysOsalStartTimer_1
    440            else
    441            {
    442              retValue = ZInvalidParameter;
   \                     ??MT_SysOsalStartTimer_0:
   \   000034   85..82       MOV     DPL,?XSP + 0
   \   000037   85..83       MOV     DPH,?XSP + 1
   \   00003A   7402         MOV     A,#0x2
    443            }
   \                     ??MT_SysOsalStartTimer_1:
   \   00003C   02....       LJMP    ?Subroutine0 & 0xFFFF
    444          
    445            /* Build and send back the response */
    446            MT_BuildAndSendZToolResponse(((uint8)MT_RPC_CMD_SRSP | (uint8)MT_RPC_SYS_SYS), cmdId, 1, &retValue);
    447          }

   \                                 In  segment BANKED_CODE, align 1, keep-with-next
   \                     ?Subroutine3:
   \   000000   85..82       MOV     DPL,?XSP + 0
   \   000003   85..83       MOV     DPH,?XSP + 1
   \   000006   7401         MOV     A,#0x1
   \   000008   F0           MOVX    @DPTR,A
   \   000009                REQUIRE ??Subroutine11_0
   \   000009                ; // Fall through to label ??Subroutine11_0

   \                                 In  segment BANKED_CODE, align 1, keep-with-next
   \                     ??Subroutine11_0:
   \   000000   8A82         MOV     DPL,R2
   \   000002   8B83         MOV     DPH,R3
   \   000004   A3           INC     DPTR
   \   000005   A3           INC     DPTR
   \   000006   E0           MOVX    A,@DPTR
   \   000007   FE           MOV     R6,A
   \   000008   12....       LCALL   ?Subroutine7 & 0xFFFF
   \                     ??CrossCallReturnLabel_11:
   \   00000B   22           RET

   \                                 In  segment BANKED_CODE, align 1, keep-with-next
   \                     ?Subroutine5:
   \   000000   33           RLC     A
   \   000001   F8           MOV     R0,A
   \   000002   E4           CLR     A
   \   000003   33           RLC     A
   \   000004   F9           MOV     R1,A
   \   000005   74..         MOV     A,#MT_SysOsalEventId & 0xff
   \   000007   28           ADD     A,R0
   \   000008   F582         MOV     DPL,A
   \   00000A   74..         MOV     A,#(MT_SysOsalEventId >> 8) & 0xff
   \   00000C   39           ADDC    A,R1
   \   00000D   F583         MOV     DPH,A
   \   00000F   E0           MOVX    A,@DPTR
   \   000010   FA           MOV     R2,A
   \   000011   A3           INC     DPTR
   \   000012   E0           MOVX    A,@DPTR
   \   000013   FB           MOV     R3,A
   \   000014   90....       MOV     DPTR,#MT_TaskID
   \   000017   E0           MOVX    A,@DPTR
   \   000018   F9           MOV     R1,A
   \   000019   22           RET

   \                                 In  segment BANKED_CODE, align 1, keep-with-next
   \                     ?Subroutine0:
   \   000000   F0           MOVX    @DPTR,A
   \   000001                ; Setup parameters for call to function MT_BuildAndSendZToolResponse
   \   000001                ; Setup parameters for call to function MT_BuildAndSendZToolResponse
   \   000001   AC82         MOV     R4,DPL
   \   000003   AD83         MOV     R5,DPH
   \   000005   7B01         MOV     R3,#0x1
   \   000007   EE           MOV     A,R6
   \   000008   FA           MOV     R2,A
   \   000009   7961         MOV     R1,#0x61
   \   00000B                REQUIRE ??Subroutine14_0
   \   00000B                ; // Fall through to label ??Subroutine14_0

   \                                 In  segment BANKED_CODE, align 1, keep-with-next
   \                     ??Subroutine14_0:
   \   000000   12....       LCALL   ??Subroutine10_0 & 0xFFFF
   \                     ??CrossCallReturnLabel_15:
   \   000003   12....       LCALL   ?DEALLOC_XSTACK8
   \   000006                REQUIRE ??Subroutine15_0
   \   000006                ; // Fall through to label ??Subroutine15_0
    448          
    449          /***************************************************************************************************
    450           * @fn      MT_SysOsalStopTimer
    451           *
    452           * @brief
    453           *
    454           * @param   uint8 pData - pointer to the data
    455           *
    456           * @return  None
    457           ***************************************************************************************************/

   \                                 In  segment BANKED_CODE, align 1, keep-with-next
    458          void MT_SysOsalStopTimer(uint8 *pBuf)
   \                     MT_SysOsalStopTimer:
    459          {
   \   000000   74F7         MOV     A,#-0x9
   \   000002   12....       LCALL   ?BANKED_ENTER_XDATA
   \   000005                ; Saved register size: 9
   \   000005                ; Auto size: 1
   \   000005   74FF         MOV     A,#-0x1
   \   000007   12....       LCALL   ?ALLOC_XSTACK8
    460            uint16 eventId;
    461            uint8 retValue = ZFailure;
   \   00000A   12....       LCALL   ?Subroutine3 & 0xFFFF
    462            uint8 cmdId;
    463          
    464            /* parse header */
    465            cmdId = pBuf[MT_RPC_POS_CMD1];
    466            pBuf += MT_RPC_FRAME_HDR_SZ;
    467          
    468            if (*pBuf <= 3)
   \                     ??CrossCallReturnLabel_8:
   \   00000D   F8           MOV     R0,A
   \   00000E   C3           CLR     C
   \   00000F   9404         SUBB    A,#0x4
   \   000011   5011         JNC     ??MT_SysOsalStopTimer_0
    469            {
    470              eventId = (uint16) MT_SysOsalEventId[*pBuf];
    471              retValue = osal_stop_timerEx(MT_TaskID, eventId);
   \   000013                ; Setup parameters for call to function osal_stop_timerEx
   \   000013   E8           MOV     A,R0
   \   000014   C3           CLR     C
   \   000015   12....       LCALL   ?Subroutine5 & 0xFFFF
    472            }
   \                     ??CrossCallReturnLabel_4:
   \   000018   12....       LCALL   ??osal_stop_timerEx?relay
   \   00001B   E9           MOV     A,R1
   \   00001C   85..82       MOV     DPL,?XSP + 0
   \   00001F   85..83       MOV     DPH,?XSP + 1
   \   000022   8008         SJMP    ??MT_SysOsalStopTimer_1
    473            else
    474            {
    475              retValue = ZInvalidParameter;
   \                     ??MT_SysOsalStopTimer_0:
   \   000024   85..82       MOV     DPL,?XSP + 0
   \   000027   85..83       MOV     DPH,?XSP + 1
   \   00002A   7402         MOV     A,#0x2
    476            }
   \                     ??MT_SysOsalStopTimer_1:
   \   00002C   02....       LJMP    ?Subroutine0 & 0xFFFF
    477          
    478            /* Build and send back the response */
    479            MT_BuildAndSendZToolResponse(((uint8)MT_RPC_CMD_SRSP | (uint8)MT_RPC_SYS_SYS), cmdId, 1, &retValue );
    480          }
    481          
    482          /***************************************************************************************************
    483           * @fn      MT_SysRandom
    484           *
    485           * @brief
    486           *
    487           * @param   uint8 pData - pointer to the data
    488           *
    489           * @return  None
    490           ***************************************************************************************************/

   \                                 In  segment BANKED_CODE, align 1, keep-with-next
    491          void MT_SysRandom()
   \                     MT_SysRandom:
    492          {
   \   000000   74F6         MOV     A,#-0xa
   \   000002   12....       LCALL   ?BANKED_ENTER_XDATA
   \   000005                ; Saved register size: 10
   \   000005                ; Auto size: 2
   \   000005   74FE         MOV     A,#-0x2
   \   000007   12....       LCALL   ?ALLOC_XSTACK8
    493            uint16 randValue = Onboard_rand();
   \   00000A                ; Setup parameters for call to function Onboard_rand
   \   00000A   12....       LCALL   ??Onboard_rand?relay
    494            uint8 retArray[2];
    495          
    496            retArray[0] = LO_UINT16(randValue);
   \   00000D   EA           MOV     A,R2
   \   00000E   85..82       MOV     DPL,?XSP + 0
   \   000011   85..83       MOV     DPH,?XSP + 1
   \   000014   F0           MOVX    @DPTR,A
    497            retArray[1] = HI_UINT16(randValue);
   \   000015   7401         MOV     A,#0x1
   \   000017   12....       LCALL   ?XSTACK_DISP0_8
   \   00001A   EB           MOV     A,R3
   \   00001B   12....       LCALL   ?Subroutine4 & 0xFFFF
    498          
    499            /* Build and send back the response */
    500            MT_BuildAndSendZToolResponse(((uint8)MT_RPC_CMD_SRSP | (uint8)MT_RPC_SYS_SYS), MT_SYS_RANDOM, 2, retArray );
   \                     ??CrossCallReturnLabel_1:
   \   00001E   7A0C         MOV     R2,#0xc
   \   000020                REQUIRE ?Subroutine2
   \   000020                ; // Fall through to label ?Subroutine2
    501          }

   \                                 In  segment BANKED_CODE, align 1, keep-with-next
   \                     ?Subroutine2:
   \   000000   7961         MOV     R1,#0x61
   \   000002   12....       LCALL   ??MT_BuildAndSendZToolResponse?relay
   \   000005   7402         MOV     A,#0x2
   \   000007                REQUIRE ??Subroutine12_0
   \   000007                ; // Fall through to label ??Subroutine12_0
    502          
    503          /***************************************************************************************************
    504           * @fn      MT_SysAdcRead
    505           *
    506           * @brief   Reading ADC value, temperature sensor and voltage
    507           *
    508           * @param   uint8 pData - pointer to the data
    509           *
    510           * @return  None
    511           ***************************************************************************************************/

   \                                 In  segment BANKED_CODE, align 1, keep-with-next
    512          void MT_SysAdcRead(uint8 *pBuf)
   \                     MT_SysAdcRead:
    513          {
   \   000000   74F6         MOV     A,#-0xa
   \   000002   12....       LCALL   ?BANKED_ENTER_XDATA
   \   000005                ; Saved register size: 10
   \   000005                ; Auto size: 2
   \   000005   74FE         MOV     A,#-0x2
   \   000007   12....       LCALL   ?ALLOC_XSTACK8
    514            uint8 channel, resolution;
    515            uint16 tempValue;
    516            uint8 retArray[2];
    517            uint8 cmdId;
    518          
    519            /* parse header */
    520            cmdId = pBuf[MT_RPC_POS_CMD1];
   \   00000A   12....       LCALL   ??Subroutine11_0 & 0xFFFF
    521            pBuf += MT_RPC_FRAME_HDR_SZ;
    522          
    523            /* Channel */
    524            channel = *pBuf++;
   \                     ??CrossCallReturnLabel_9:
   \   00000D   FC           MOV     R4,A
   \   00000E   A3           INC     DPTR
   \   00000F   AA82         MOV     R2,DPL
   \   000011   AB83         MOV     R3,DPH
    525          
    526            /* Resolution */
    527            resolution = *pBuf++;
    528          
    529            /* Voltage reading */
    530            switch (channel)
   \   000013   12....       LCALL   ?UC_SWITCH_SPARSE
   \                     `?<Jumptable for MT_SysAdcRead>_0`:
   \   000016   01           DB        1
   \   000017   00           DB        0
   \   000018   07           DB        7
   \   000019   ....         DW        ??MT_SysAdcRead_0
   \   00001B   02           DB        2
   \   00001C   0E           DB        14
   \   00001D   ....         DW        ??MT_SysAdcRead_1
   \   00001F   0F           DB        15
   \   000020   ....         DW        ??MT_SysAdcRead_2
   \   000022   ....         DW        ??MT_SysAdcRead_3
    531            {
    532              /* Analog input channel */
    533              case HAL_ADC_CHANNEL_0:
    534              case HAL_ADC_CHANNEL_1:
    535              case HAL_ADC_CHANNEL_2:
    536              case HAL_ADC_CHANNEL_3:
    537              case HAL_ADC_CHANNEL_4:
    538              case HAL_ADC_CHANNEL_5:
    539              case HAL_ADC_CHANNEL_6:
    540              case HAL_ADC_CHANNEL_7:
    541                tempValue = HalAdcRead(channel, resolution);
   \                     ??MT_SysAdcRead_0:
   \   000024                ; Setup parameters for call to function HalAdcRead
   \   000024   8A82         MOV     DPL,R2
   \   000026   8B83         MOV     DPH,R3
   \   000028   E0           MOVX    A,@DPTR
   \   000029   FA           MOV     R2,A
   \   00002A   EC           MOV     A,R4
   \   00002B   F9           MOV     R1,A
   \   00002C   800A         SJMP    ??MT_SysAdcRead_4
    542                break;
    543          
    544              /* Temperature sensor */
    545              case(HAL_ADC_CHANNEL_TEMP):
    546                tempValue = HalAdcRead(HAL_ADC_CHANNEL_TEMP, HAL_ADC_RESOLUTION_14);
   \                     ??MT_SysAdcRead_1:
   \   00002E                ; Setup parameters for call to function HalAdcRead
   \   00002E   7A04         MOV     R2,#0x4
   \   000030   790E         MOV     R1,#0xe
   \   000032   8004         SJMP    ??MT_SysAdcRead_4
    547                break;
    548          
    549              /* Voltage reading */
    550              case(HAL_ADC_CHANNEL_VDD):
    551                tempValue = HalAdcRead(HAL_ADC_CHANNEL_VDD, HAL_ADC_RESOLUTION_14);
   \                     ??MT_SysAdcRead_2:
   \   000034                ; Setup parameters for call to function HalAdcRead
   \   000034   7A04         MOV     R2,#0x4
   \   000036   790F         MOV     R1,#0xf
   \                     ??MT_SysAdcRead_4:
   \   000038   12....       LCALL   ??HalAdcRead?relay
   \   00003B   8A..         MOV     ?V0 + 0,R2
   \   00003D   8B..         MOV     ?V0 + 1,R3
   \   00003F   A8..         MOV     R0,?V0 + 0
   \   000041   A9..         MOV     R1,?V0 + 1
    552                break;
    553          
    554              default:
    555                break;
    556            }
    557          
    558            retArray[0] = LO_UINT16(tempValue);
   \                     ??MT_SysAdcRead_3:
   \   000043   E8           MOV     A,R0
   \   000044   85..82       MOV     DPL,?XSP + 0
   \   000047   85..83       MOV     DPH,?XSP + 1
   \   00004A   F0           MOVX    @DPTR,A
    559            retArray[1] = HI_UINT16(tempValue);
   \   00004B   7401         MOV     A,#0x1
   \   00004D   12....       LCALL   ?XSTACK_DISP0_8
   \   000050   E9           MOV     A,R1
   \   000051   12....       LCALL   ?Subroutine4 & 0xFFFF
    560          
    561            /* Build and send back the response */
    562            MT_BuildAndSendZToolResponse(((uint8)MT_RPC_CMD_SRSP | (uint8)MT_RPC_SYS_SYS), cmdId, 2, retArray);
   \                     ??CrossCallReturnLabel_2:
   \   000054   EE           MOV     A,R6
   \   000055   FA           MOV     R2,A
   \   000056   80..         SJMP    ?Subroutine2
    563          }
    564          
    565          /**************************************************************************************************
    566           * @fn      MT_SysGpio
    567           *
    568           * @brief   ZAccel RPC interface for controlling the available GPIO pins.
    569           *
    570           * @param   uint8 pData - Pointer to the data.
    571           *
    572           * @return  None
    573           *************************************************************************************************/

   \                                 In  segment BANKED_CODE, align 1, keep-with-next
    574          void MT_SysGpio(uint8 *pBuf)
   \                     MT_SysGpio:
    575          {
   \   000000   C082         PUSH    DPL
   \   000002   C083         PUSH    DPH
   \   000004                ; Saved register size: 2
   \   000004                ; Auto size: 1
   \   000004   74FF         MOV     A,#-0x1
   \   000006   12....       LCALL   ?ALLOC_XSTACK8
   \   000009   EA           MOV     A,R2
   \   00000A   F8           MOV     R0,A
   \   00000B   EB           MOV     A,R3
   \   00000C   F9           MOV     R1,A
    576            uint8 cmd, val;
    577          
    578            cmd = pBuf[MT_RPC_POS_CMD1];
    579            pBuf += MT_RPC_FRAME_HDR_SZ;
    580          
    581            /* Board specific GPIO goes here */
    582          
    583            MT_BuildAndSendZToolResponse(((uint8)MT_RPC_CMD_SRSP | (uint8)MT_RPC_SYS_SYS), cmd, 1, &val);
   \   00000D                ; Setup parameters for call to function MT_BuildAndSendZToolResponse
   \   00000D   85..82       MOV     DPL,?XSP + 0
   \   000010   85..83       MOV     DPH,?XSP + 1
   \   000013   AC82         MOV     R4,DPL
   \   000015   AD83         MOV     R5,DPH
   \   000017   7B01         MOV     R3,#0x1
   \   000019   8882         MOV     DPL,R0
   \   00001B   8983         MOV     DPH,R1
   \   00001D   A3           INC     DPTR
   \   00001E   A3           INC     DPTR
   \   00001F   E0           MOVX    A,@DPTR
   \   000020   12....       LCALL   ?Subroutine6 & 0xFFFF
    584          }
   \                     ??CrossCallReturnLabel_13:
   \   000023                REQUIRE ?Subroutine1
   \   000023                ; // Fall through to label ?Subroutine1
    585          
    586          #endif /* MT_SYS_FUNC */
    587          
    588          /***************************************************************************************************
    589           * SUPPORT
    590           ***************************************************************************************************/
    591          
    592          /***************************************************************************************************
    593           * @fn      MT_SysResetInd()
    594           *
    595           * @brief   Sends a ZTOOL "reset response" message.
    596           *
    597           * @param   None
    598           *
    599           * @return  None
    600           *
    601           ***************************************************************************************************/

   \                                 In  segment BANKED_CODE, align 1, keep-with-next
    602          void MT_SysResetInd(void)
   \                     MT_SysResetInd:
    603          {
   \   000000   C082         PUSH    DPL
   \   000002   C083         PUSH    DPH
   \   000004                ; Saved register size: 2
   \   000004                ; Auto size: 6
   \   000004   74FA         MOV     A,#-0x6
   \   000006   12....       LCALL   ?ALLOC_XSTACK8
    604            uint8 retArray[6];
    605          
    606            retArray[0] = ResetReason();   /* Reason */
   \   000009   E59D         MOV     A,0x9d
   \   00000B   13           RRC     A
   \   00000C   13           RRC     A
   \   00000D   13           RRC     A
   \   00000E   541F         ANL     A,#0x1f
   \   000010   5403         ANL     A,#0x3
   \   000012   85..82       MOV     DPL,?XSP + 0
   \   000015   85..83       MOV     DPH,?XSP + 1
   \   000018   F0           MOVX    @DPTR,A
    607            retArray[1] = 0x00;            /* Transport Revision */
   \   000019   7401         MOV     A,#0x1
   \   00001B   12....       LCALL   ?XSTACK_DISP0_8
   \   00001E   E4           CLR     A
   \   00001F   F0           MOVX    @DPTR,A
    608            retArray[2] = 0x00;            /* Product */
   \   000020   7402         MOV     A,#0x2
   \   000022   12....       LCALL   ?XSTACK_DISP0_8
   \   000025   E4           CLR     A
   \   000026   F0           MOVX    @DPTR,A
    609            retArray[3] = 0x00;            /* Major Revision */
   \   000027   7403         MOV     A,#0x3
   \   000029   12....       LCALL   ?XSTACK_DISP0_8
   \   00002C   E4           CLR     A
   \   00002D   F0           MOVX    @DPTR,A
    610            retArray[4] = 0x00;            /* Minor Revision */
   \   00002E   7404         MOV     A,#0x4
   \   000030   12....       LCALL   ?XSTACK_DISP0_8
   \   000033   E4           CLR     A
   \   000034   F0           MOVX    @DPTR,A
    611            retArray[5] = 0x00;            /* Hardware Revision */
   \   000035   7405         MOV     A,#0x5
   \   000037   12....       LCALL   ?XSTACK_DISP0_8
   \   00003A   E4           CLR     A
   \   00003B   12....       LCALL   ?Subroutine8 & 0xFFFF
    612          
    613            /* Send out Reset Response message */
    614            MT_BuildAndSendZToolResponse(((uint8)MT_RPC_CMD_AREQ | (uint8)MT_RPC_SYS_SYS), MT_SYS_RESET_IND,
    615                                          sizeof(retArray), retArray);
   \                     ??CrossCallReturnLabel_6:
   \   00003E   7B06         MOV     R3,#0x6
   \   000040   7A80         MOV     R2,#-0x80
   \   000042   7941         MOV     R1,#0x41
   \   000044   12....       LCALL   ??MT_BuildAndSendZToolResponse?relay
    616          }
   \   000047   7406         MOV     A,#0x6
   \   000049   80..         SJMP    ?Subroutine1
   \   00004B                REQUIRE SLEEPSTA
    617          
    618          /***************************************************************************************************
    619           * @fn      MT_SysOsalTimerExpired()
    620           *
    621           * @brief   Sends a SYS Osal Timer Expired
    622           *
    623           * @param   None
    624           *
    625           * @return  None
    626           *
    627           ***************************************************************************************************/

   \                                 In  segment BANKED_CODE, align 1, keep-with-next
    628          void MT_SysOsalTimerExpired(uint8 Id)
   \                     MT_SysOsalTimerExpired:
    629          {
   \   000000   74F7         MOV     A,#-0x9
   \   000002   12....       LCALL   ?BANKED_ENTER_XDATA
   \   000005                ; Saved register size: 9
   \   000005                ; Auto size: 1
   \   000005   74FF         MOV     A,#-0x1
   \   000007   12....       LCALL   ?ALLOC_XSTACK8
   \   00000A   E9           MOV     A,R1
    630            uint8 retValue;
    631            retValue = Id;
   \   00000B   85..82       MOV     DPL,?XSP + 0
   \   00000E   85..83       MOV     DPH,?XSP + 1
   \   000011   F0           MOVX    @DPTR,A
    632            MT_BuildAndSendZToolResponse(((uint8)MT_RPC_CMD_AREQ | (uint8)MT_RPC_SYS_SYS), MT_SYS_OSAL_TIMER_EXPIRED, 1, &retValue);
   \   000012                ; Setup parameters for call to function MT_BuildAndSendZToolResponse
   \   000012   AC82         MOV     R4,DPL
   \   000014   AD83         MOV     R5,DPH
   \   000016   7B01         MOV     R3,#0x1
   \   000018   7A81         MOV     R2,#-0x7f
   \   00001A   7941         MOV     R1,#0x41
   \   00001C   80..         SJMP    ??Subroutine14_0
    633          }

   \                                 In  segment BANK_RELAYS, align 1
   \                     ??MT_SysCommandProcessing?relay:
   \   000000   12....       LCALL   ?BDISPATCH
   \   000003   ......       DC24    MT_SysCommandProcessing

   \                                 In  segment BANK_RELAYS, align 1
   \                     ??MT_SysReset?relay:
   \   000000   12....       LCALL   ?BDISPATCH
   \   000003   ......       DC24    MT_SysReset

   \                                 In  segment BANK_RELAYS, align 1
   \                     ??MT_SysPing?relay:
   \   000000   12....       LCALL   ?BDISPATCH
   \   000003   ......       DC24    MT_SysPing

   \                                 In  segment BANK_RELAYS, align 1
   \                     ??MT_SysVersion?relay:
   \   000000   12....       LCALL   ?BDISPATCH
   \   000003   ......       DC24    MT_SysVersion

   \                                 In  segment BANK_RELAYS, align 1
   \                     ??MT_SysSetExtAddr?relay:
   \   000000   12....       LCALL   ?BDISPATCH
   \   000003   ......       DC24    MT_SysSetExtAddr

   \                                 In  segment BANK_RELAYS, align 1
   \                     ??MT_SysGetExtAddr?relay:
   \   000000   12....       LCALL   ?BDISPATCH
   \   000003   ......       DC24    MT_SysGetExtAddr

   \                                 In  segment BANK_RELAYS, align 1
   \                     ??MT_SysOsalNVRead?relay:
   \   000000   12....       LCALL   ?BDISPATCH
   \   000003   ......       DC24    MT_SysOsalNVRead

   \                                 In  segment BANK_RELAYS, align 1
   \                     ??MT_SysOsalNVWrite?relay:
   \   000000   12....       LCALL   ?BDISPATCH
   \   000003   ......       DC24    MT_SysOsalNVWrite

   \                                 In  segment BANK_RELAYS, align 1
   \                     ??MT_SysOsalStartTimer?relay:
   \   000000   12....       LCALL   ?BDISPATCH
   \   000003   ......       DC24    MT_SysOsalStartTimer

   \                                 In  segment BANK_RELAYS, align 1
   \                     ??MT_SysOsalStopTimer?relay:
   \   000000   12....       LCALL   ?BDISPATCH
   \   000003   ......       DC24    MT_SysOsalStopTimer

   \                                 In  segment BANK_RELAYS, align 1
   \                     ??MT_SysRandom?relay:
   \   000000   12....       LCALL   ?BDISPATCH
   \   000003   ......       DC24    MT_SysRandom

   \                                 In  segment BANK_RELAYS, align 1
   \                     ??MT_SysAdcRead?relay:
   \   000000   12....       LCALL   ?BDISPATCH
   \   000003   ......       DC24    MT_SysAdcRead

   \                                 In  segment BANK_RELAYS, align 1
   \                     ??MT_SysGpio?relay:
   \   000000   12....       LCALL   ?BDISPATCH
   \   000003   ......       DC24    MT_SysGpio

   \                                 In  segment BANK_RELAYS, align 1
   \                     ??MT_SysResetInd?relay:
   \   000000   12....       LCALL   ?BDISPATCH
   \   000003   ......       DC24    MT_SysResetInd

   \                                 In  segment BANK_RELAYS, align 1
   \                     ??MT_SysOsalTimerExpired?relay:
   \   000000   12....       LCALL   ?BDISPATCH
   \   000003   ......       DC24    MT_SysOsalTimerExpired
    634          
    635          /***************************************************************************************************
    636           ***************************************************************************************************/

   Maximum stack usage in bytes:

     Function                       ISTACK PSTACK XSTACK
     --------                       ------ ------ ------
     MT_SysAdcRead                      1      0     21
       -> HalAdcRead                    0      0     24
       -> HalAdcRead                    0      0     24
       -> HalAdcRead                    0      0     24
       -> MT_BuildAndSendZToolResponse
                                        0      0     24
     MT_SysCommandProcessing            0      0      9
       -> MT_SysReset                   0      0     18
       -> MT_SysPing                    0      0     18
       -> MT_SysVersion                 0      0     18
       -> MT_SysSetExtAddr              0      0     18
       -> MT_SysGetExtAddr              0      0     18
       -> MT_SysOsalNVRead              0      0     18
       -> MT_SysOsalNVWrite             0      0     18
       -> MT_SysOsalStartTimer          0      0     18
       -> MT_SysOsalStopTimer           0      0     18
       -> MT_SysRandom                  0      0     18
       -> MT_SysAdcRead                 0      0     18
       -> MT_SysGpio                    0      0     18
     MT_SysGetExtAddr                   2      0     17
       -> ZMacGetReq                    4      0     16
       -> MT_BuildAndSendZToolResponse
                                        4      0     16
     MT_SysGpio                         2      0     10
       -> MT_BuildAndSendZToolResponse
                                        4      0      2
     MT_SysOsalNVRead                   1      0     29
       -> osal_nv_item_len              0      0     32
       -> osal_mem_alloc                0      0     32
       -> osal_memset                   0      0     32
       -> osal_nv_read                  0      0     40
       -> MT_BuildAndSendZToolResponse
                                        0      0     32
       -> osal_mem_free                 0      0     32
     MT_SysOsalNVWrite                  0      0     28
       -> zgSetItem                     0      0     34
       -> osal_nv_write                 0      0     38
       -> MT_BuildAndSendZToolResponse
                                        0      0     30
     MT_SysOsalStartTimer               1      0     19
       -> osal_start_timerEx            0      0     20
       -> MT_BuildAndSendZToolResponse
                                        0      0     20
     MT_SysOsalStopTimer                1      0     19
       -> osal_stop_timerEx             0      0     20
       -> MT_BuildAndSendZToolResponse
                                        0      0     20
     MT_SysOsalTimerExpired             1      0     10
       -> MT_BuildAndSendZToolResponse
                                        0      0     20
     MT_SysPing                         2      0     11
       -> MT_BuildAndSendZToolResponse
                                        4      0      4
     MT_SysRandom                       1      0     21
       -> Onboard_rand                  0      0     24
       -> MT_BuildAndSendZToolResponse
                                        0      0     24
     MT_SysReset                        0      0      9
     MT_SysResetInd                     3      0      6
       -> MT_BuildAndSendZToolResponse
                                        4      0     12
     MT_SysSetExtAddr                   1      0     24
       -> ZMacSetReq                    0      0     22
       -> osal_nv_write                 0      0     30
       -> MT_BuildAndSendZToolResponse
                                        0      0     22
     MT_SysVersion                      2      0      9
       -> MT_BuildAndSendZToolResponse
                                        4      0      0


   Segment part sizes:

     Function/Label                  Bytes
     --------------                  -----
     SLEEPSTA                           1
     _A_IEN0                            1
     WDCTL                              1
     MT_SysOsalEventId                  8
     MT_SysCommandProcessing          123
     ??Subroutine15_0                   5
     MT_SysReset                       11
     MT_SysPing                        39
     ?Subroutine4                       6
     ?Subroutine1                       3
     ??Subroutine13_0                   7
     ?Subroutine8                      12
     MT_SysVersion                     20
     MT_SysSetExtAddr                 108
     ?Subroutine6                       1
     ??Subroutine9_0                    2
     ??Subroutine10_0                   6
     ??Subroutine12_0                   8
     MT_SysGetExtAddr                  48
     MT_SysOsalNVRead                 250
     ?Subroutine7                      16
     MT_SysOsalNVWrite                177
     MT_SysOsalStartTimer              63
     ?Subroutine3                       9
     ??Subroutine11_0                  12
     ?Subroutine5                      26
     ?Subroutine0                      11
     ??Subroutine14_0                   6
     MT_SysOsalStopTimer               47
     MT_SysRandom                      32
     ?Subroutine2                       7
     MT_SysAdcRead                     88
     MT_SysGpio                        35
     MT_SysResetInd                    75
     MT_SysOsalTimerExpired            30
     ??MT_SysCommandProcessing?relay    6
     ??MT_SysReset?relay                6
     ??MT_SysPing?relay                 6
     ??MT_SysVersion?relay              6
     ??MT_SysSetExtAddr?relay           6
     ??MT_SysGetExtAddr?relay           6
     ??MT_SysOsalNVRead?relay           6
     ??MT_SysOsalNVWrite?relay          6
     ??MT_SysOsalStartTimer?relay       6
     ??MT_SysOsalStopTimer?relay        6
     ??MT_SysRandom?relay               6
     ??MT_SysAdcRead?relay              6
     ??MT_SysGpio?relay                 6
     ??MT_SysResetInd?relay             6
     ??MT_SysOsalTimerExpired?relay     6

 
 1 283 bytes in segment BANKED_CODE
    90 bytes in segment BANK_RELAYS
     3 bytes in segment SFR_AN
     8 bytes in segment XDATA_ROM_C
 
 1 373 bytes of CODE  memory
     8 bytes of CONST memory
     0 bytes of DATA  memory (+ 3 bytes shared)

Errors: none
Warnings: none
