///////////////////////////////////////////////////////////////////////////////
//                                                                            /
// IAR C/C++ Compiler V8.10.3.10338/W32 for 8051        16/Dec/2014  18:18:10 /
// Copyright 2004-2011 IAR Systems AB.                                        /
//                                                                            /
//    Core               =  plain                                             /
//    Code model         =  banked                                            /
//    Data model         =  large                                             /
//    Calling convention =  xdata reentrant                                   /
//    Constant location  =  data_rom                                          /
//    Dptr setup         =  1,16                                              /
//    Source file        =  E:\Zigbee-timer\Texas Instruments\Projects\zstack /
//                          \Samples\MyfirstAPP\Source\MyfirstAppRouterManage /
//                          .c                                                /
//    Command line       =  -f "E:\Zigbee-timer\Texas                         /
//                          Instruments\Projects\zstack\Samples\MyfirstAPP\CC /
//                          2530DB\..\..\..\Tools\CC2530DB\f8wEndev.cfg"      /
//                          (-DCPU32MHZ -DROOT=__near_func -DBLINK_LEDS) -f   /
//                          "E:\Zigbee-timer\Texas Instruments\Projects\zstac /
//                          k\Samples\MyfirstAPP\CC2530DB\..\..\..\Tools\CC25 /
//                          30DB\f8wConfig.cfg" (-DSECURE=0                   /
//                          -DZG_SECURE_DYNAMIC=0 -DREFLECTOR                 /
//                          -DDEFAULT_CHANLIST=0x02000000                     /
//                          -DZDAPP_CONFIG_PAN_ID=0xA1B2                      /
//                          -DNWK_START_DELAY=100 -DEXTENDED_JOINING_RANDOM_M /
//                          ASK=0x007F -DBEACON_REQUEST_DELAY=100             /
//                          -DBEACON_REQ_DELAY_MASK=0x00FF                    /
//                          -DROUTE_EXPIRY_TIME=30 -DAPSC_ACK_WAIT_DURATION_P /
//                          OLLED=3000 -DNWK_INDIRECT_MSG_TIMEOUT=7           /
//                          -DMAX_RREQ_ENTRIES=8 -DAPSC_MAX_FRAME_RETRIES=3   /
//                          -DNWK_MAX_DATA_RETRIES=2                          /
//                          -DMAX_POLL_FAILURE_RETRIES=2 -DMAX_BCAST=9        /
//                          -DAPS_MAX_GROUPS=16 -DMAX_RTG_ENTRIES=40          /
//                          -DNWK_MAX_BINDING_ENTRIES=4                       /
//                          -DMAX_BINDING_CLUSTER_IDS=4                       /
//                          "-DDEFAULT_KEY={0x01, 0x03, 0x05, 0x07, 0x09,     /
//                          0x0B, 0x0D, 0x0F, 0x00, 0x02, 0x04, 0x06, 0x08,   /
//                          0x0A, 0x0C, 0x0D}" -DMAC_MAX_FRAME_SIZE=116       /
//                          "-DCONST=const __code" -DGENERIC=__generic        /
//                          -DRFD_RCVC_ALWAYS_ON=FALSE -DPOLL_RATE=1000       /
//                          -DQUEUED_POLL_RATE=100 -DRESPONSE_POLL_RATE=100)  /
//                          -DREJOIN_POLL_RATE=440 "E:\Zigbee-timer\Texas     /
//                          Instruments\Projects\zstack\Samples\MyfirstAPP\So /
//                          urce\MyfirstAppRouterManage.c" -D ZIGBEEPRO -D    /
//                          NWK_AUTO_POLL -D ZTOOL_P1 -D MT_TASK -D           /
//                          MT_SYS_FUNC -D MT_ZDO_FUNC -D                     /
//                          LCD_SUPPORTED=DEBUG -D xPOWER_SAVING -lC          /
//                          "E:\Zigbee-timer\Texas Instruments\Projects\zstac /
//                          k\Samples\MyfirstAPP\CC2530DB\EndDeviceEB-Pro\Lis /
//                          t\" -lA "E:\Zigbee-timer\Texas                    /
//                          Instruments\Projects\zstack\Samples\MyfirstAPP\CC /
//                          2530DB\EndDeviceEB-Pro\List\" --diag_suppress     /
//                          Pe001,Pa010 -o "E:\Zigbee-timer\Texas             /
//                          Instruments\Projects\zstack\Samples\MyfirstAPP\CC /
//                          2530DB\EndDeviceEB-Pro\Obj\" -e --debug           /
//                          --core=plain --dptr=16,1 --data_model=large       /
//                          --code_model=banked --calling_convention=xdata_re /
//                          entrant --place_constants=data_rom                /
//                          --nr_virtual_regs 8 -I "E:\Zigbee-timer\Texas     /
//                          Instruments\Projects\zstack\Samples\MyfirstAPP\CC /
//                          2530DB\" -I "E:\Zigbee-timer\Texas                /
//                          Instruments\Projects\zstack\Samples\MyfirstAPP\CC /
//                          2530DB\..\SOURCE\" -I "E:\Zigbee-timer\Texas      /
//                          Instruments\Projects\zstack\Samples\MyfirstAPP\CC /
//                          2530DB\..\..\..\ZMAIN\TI2530DB\" -I               /
//                          "E:\Zigbee-timer\Texas Instruments\Projects\zstac /
//                          k\Samples\MyfirstAPP\CC2530DB\..\..\..\..\..\COMP /
//                          ONENTS\MT\" -I "E:\Zigbee-timer\Texas             /
//                          Instruments\Projects\zstack\Samples\MyfirstAPP\CC /
//                          2530DB\..\..\..\..\..\COMPONENTS\HAL\INCLUDE\"    /
//                          -I "E:\Zigbee-timer\Texas                         /
//                          Instruments\Projects\zstack\Samples\MyfirstAPP\CC /
//                          2530DB\..\..\..\..\..\COMPONENTS\HAL\TARGET\CC253 /
//                          0EB\" -I "E:\Zigbee-timer\Texas                   /
//                          Instruments\Projects\zstack\Samples\MyfirstAPP\CC /
//                          2530DB\..\..\..\..\..\COMPONENTS\OSAL\MCU\CCSOC\" /
//                           -I "E:\Zigbee-timer\Texas                        /
//                          Instruments\Projects\zstack\Samples\MyfirstAPP\CC /
//                          2530DB\..\..\..\..\..\COMPONENTS\OSAL\INCLUDE\"   /
//                          -I "E:\Zigbee-timer\Texas                         /
//                          Instruments\Projects\zstack\Samples\MyfirstAPP\CC /
//                          2530DB\..\..\..\..\..\COMPONENTS\STACK\AF\" -I    /
//                          "E:\Zigbee-timer\Texas Instruments\Projects\zstac /
//                          k\Samples\MyfirstAPP\CC2530DB\..\..\..\..\..\COMP /
//                          ONENTS\STACK\NWK\" -I "E:\Zigbee-timer\Texas      /
//                          Instruments\Projects\zstack\Samples\MyfirstAPP\CC /
//                          2530DB\..\..\..\..\..\COMPONENTS\STACK\SEC\" -I   /
//                          "E:\Zigbee-timer\Texas Instruments\Projects\zstac /
//                          k\Samples\MyfirstAPP\CC2530DB\..\..\..\..\..\COMP /
//                          ONENTS\STACK\SAPI\" -I "E:\Zigbee-timer\Texas     /
//                          Instruments\Projects\zstack\Samples\MyfirstAPP\CC /
//                          2530DB\..\..\..\..\..\COMPONENTS\STACK\SYS\" -I   /
//                          "E:\Zigbee-timer\Texas Instruments\Projects\zstac /
//                          k\Samples\MyfirstAPP\CC2530DB\..\..\..\..\..\COMP /
//                          ONENTS\STACK\ZDO\" -I "E:\Zigbee-timer\Texas      /
//                          Instruments\Projects\zstack\Samples\MyfirstAPP\CC /
//                          2530DB\..\..\..\..\..\COMPONENTS\ZMAC\F8W\" -I    /
//                          "E:\Zigbee-timer\Texas Instruments\Projects\zstac /
//                          k\Samples\MyfirstAPP\CC2530DB\..\..\..\..\..\COMP /
//                          ONENTS\ZMAC\" -I "E:\Zigbee-timer\Texas           /
//                          Instruments\Projects\zstack\Samples\MyfirstAPP\CC /
//                          2530DB\..\..\..\..\..\COMPONENTS\SERVICES\SADDR\" /
//                           -I "E:\Zigbee-timer\Texas                        /
//                          Instruments\Projects\zstack\Samples\MyfirstAPP\CC /
//                          2530DB\..\..\..\..\..\COMPONENTS\SERVICES\SDATA\" /
//                           -I "E:\Zigbee-timer\Texas                        /
//                          Instruments\Projects\zstack\Samples\MyfirstAPP\CC /
//                          2530DB\..\..\..\..\..\COMPONENTS\MAC\INCLUDE\"    /
//                          -I "E:\Zigbee-timer\Texas                         /
//                          Instruments\Projects\zstack\Samples\MyfirstAPP\CC /
//                          2530DB\..\..\..\..\..\COMPONENTS\MAC\HIGH_LEVEL\" /
//                           -I "E:\Zigbee-timer\Texas                        /
//                          Instruments\Projects\zstack\Samples\MyfirstAPP\CC /
//                          2530DB\..\..\..\..\..\COMPONENTS\MAC\LOW_LEVEL\sr /
//                          f04\" -I "E:\Zigbee-timer\Texas                   /
//                          Instruments\Projects\zstack\Samples\MyfirstAPP\CC /
//                          2530DB\..\..\..\..\..\COMPONENTS\MAC\LOW_LEVEL\sr /
//                          f04\SINGLE_CHIP\" -Ohz --require_prototypes       /
//    List file          =  E:\Zigbee-timer\Texas Instruments\Projects\zstack /
//                          \Samples\MyfirstAPP\CC2530DB\EndDeviceEB-Pro\List /
//                          \MyfirstAppRouterManage.s51                       /
//                                                                            /
//                                                                            /
///////////////////////////////////////////////////////////////////////////////

        NAME MyfirstAppRouterManage

        RTMODEL "__SystemLibrary", "CLib"
        RTMODEL "__calling_convention", "xdata_reentrant"
        RTMODEL "__code_model", "banked"
        RTMODEL "__core", "plain"
        RTMODEL "__data_model", "large"
        RTMODEL "__dptr_size", "16"
        RTMODEL "__extended_stack", "disabled"
        RTMODEL "__location_for_constants", "data"
        RTMODEL "__number_of_dptrs", "1"
        RTMODEL "__rt_version", "1"

        RSEG DOVERLAY:DATA:NOROOT(0)
        RSEG IOVERLAY:IDATA:NOROOT(0)
        RSEG ISTACK:IDATA:NOROOT(0)
        RSEG PSTACK:XDATA:NOROOT(0)
        RSEG XSTACK:XDATA:NOROOT(0)

        EXTERN ?BANKED_ENTER_XDATA
        EXTERN ?BANKED_LEAVE_XDATA
        EXTERN ?BDISPATCH
        EXTERN ?DEALLOC_XSTACK8
        EXTERN ?PUSH_XSTACK_I_ONE
        EXTERN ?PUSH_XSTACK_I_TWO
        EXTERN ?R2345_FLT_TO_L
        EXTERN ?US_SWITCH_DENSE
        EXTERN ?V0
        EXTERN ?XLOAD_R2345
        EXTERN ?XSTORE_R2345
        EXTERN __INIT_XDATA_I
        EXTERN __INIT_XDATA_Z

        PUBLIC ??My_Task_Init?relay
        FUNCTION ??My_Task_Init?relay,0203H
        PUBLIC ??My_Task_Process_Event?relay
        FUNCTION ??My_Task_Process_Event?relay,0203H
        PUBLIC ??My_Task_Process_MSG?relay
        FUNCTION ??My_Task_Process_MSG?relay,0203H
        PUBLIC ??Send_Message?relay
        FUNCTION ??Send_Message?relay,0203H
        PUBLIC My_EndPoint_Desc
        PUBLIC My_EndPoint_SimpleDesc
        PUBLIC My_InCluster_List
        PUBLIC My_OutCluster_List
        PUBLIC My_TaskID
        PUBLIC My_Task_Init
        FUNCTION My_Task_Init,021203H
        ARGFRAME XSTACK, 0, STACK
        LOCFRAME XSTACK, 9, STACK
        PUBLIC My_Task_Process_Event
        FUNCTION My_Task_Process_Event,021203H
        ARGFRAME XSTACK, 0, STACK
        LOCFRAME XSTACK, 12, STACK
        PUBLIC My_Task_Process_MSG
        FUNCTION My_Task_Process_MSG,0a1203H
        ARGFRAME XSTACK, 12, STACK
        ARGFRAME IOVERLAY, 0, STATIC
        ARGFRAME DOVERLAY, 0, STATIC
        LOCFRAME XSTACK, 10, STACK
        PUBLIC NwkState
        PUBWEAK P2DIR
        PUBLIC Send_Message
        FUNCTION Send_Message,021203H
        ARGFRAME XSTACK, 12, STACK
        ARGFRAME IOVERLAY, 0, STATIC
        ARGFRAME DOVERLAY, 0, STATIC
        LOCFRAME XSTACK, 19, STACK
        PUBLIC Single_DstAddr
        PUBLIC TransID
        PUBWEAK _A_P2
        PUBLIC fHumiValue
        PUBLIC fTempValue
        PUBLIC fire1
        PUBLIC humi
        PUBLIC light
        PUBLIC multi_DstAddr
        PUBLIC temperature
        PUBLIC tmp_msg
        PUBLIC uHumiValue
        PUBLIC uTempValue
        
        CFI Names cfiNames0
        CFI StackFrame CFA_SP SP IDATA
        CFI StackFrame CFA_PSP16 PSP16 XDATA
        CFI StackFrame CFA_XSP16 XSP16 XDATA
        CFI StaticOverlayFrame CFA_IOVERLAY IOVERLAY
        CFI StaticOverlayFrame CFA_DOVERLAY DOVERLAY
        CFI Resource `PSW.CY`:1, `B.BR0`:1, `B.BR1`:1, `B.BR2`:1, `B.BR3`:1
        CFI Resource `B.BR4`:1, `B.BR5`:1, `B.BR6`:1, `B.BR7`:1, `VB.BR8`:1
        CFI Resource `VB.BR9`:1, `VB.BR10`:1, `VB.BR11`:1, `VB.BR12`:1
        CFI Resource `VB.BR13`:1, `VB.BR14`:1, `VB.BR15`:1, VB:8, B:8, A:8
        CFI Resource PSW:8, DPL0:8, DPH0:8, R0:8, R1:8, R2:8, R3:8, R4:8, R5:8
        CFI Resource R6:8, R7:8, V0:8, V1:8, V2:8, V3:8, V4:8, V5:8, V6:8, V7:8
        CFI Resource SP:8, PSPH:8, PSPL:8, PSP16:16, XSPH:8, XSPL:8, XSP16:16
        CFI VirtualResource ?RET:24
        CFI Resource ?BRET_EXT:8
        CFI VirtualResource ?RET_HIGH:8, ?RET_LOW:8
        CFI ResourceParts PSP16 PSPH, PSPL
        CFI ResourceParts XSP16 XSPH, XSPL
        CFI ResourceParts ?RET ?BRET_EXT, ?RET_HIGH, ?RET_LOW
        CFI EndNames cfiNames0
        
        CFI Common cfiCommon0 Using cfiNames0
        CFI CodeAlign 1
        CFI DataAlign -1
        CFI ReturnAddress ?RET CODE
        CFI CFA_DOVERLAY Used
        CFI CFA_IOVERLAY Used
        CFI CFA_SP SP+-3
        CFI CFA_PSP16 PSP16+0
        CFI CFA_XSP16 XSP16+0
        CFI `PSW.CY` SameValue
        CFI `B.BR0` SameValue
        CFI `B.BR1` SameValue
        CFI `B.BR2` SameValue
        CFI `B.BR3` SameValue
        CFI `B.BR4` SameValue
        CFI `B.BR5` SameValue
        CFI `B.BR6` SameValue
        CFI `B.BR7` SameValue
        CFI `VB.BR8` SameValue
        CFI `VB.BR9` SameValue
        CFI `VB.BR10` SameValue
        CFI `VB.BR11` SameValue
        CFI `VB.BR12` SameValue
        CFI `VB.BR13` SameValue
        CFI `VB.BR14` SameValue
        CFI `VB.BR15` SameValue
        CFI VB SameValue
        CFI B Undefined
        CFI A Undefined
        CFI PSW SameValue
        CFI DPL0 SameValue
        CFI DPH0 SameValue
        CFI R0 Undefined
        CFI R1 Undefined
        CFI R2 Undefined
        CFI R3 Undefined
        CFI R4 Undefined
        CFI R5 Undefined
        CFI R6 SameValue
        CFI R7 SameValue
        CFI V0 SameValue
        CFI V1 SameValue
        CFI V2 SameValue
        CFI V3 SameValue
        CFI V4 SameValue
        CFI V5 SameValue
        CFI V6 SameValue
        CFI V7 SameValue
        CFI PSPH Undefined
        CFI PSPL Undefined
        CFI XSPH Undefined
        CFI XSPL Undefined
        CFI ?RET Concat
        CFI ?BRET_EXT Frame(CFA_SP, 3)
        CFI ?RET_HIGH Frame(CFA_SP, 2)
        CFI ?RET_LOW Frame(CFA_SP, 1)
        CFI EndCommon cfiCommon0
        
        
        CFI Common cfiCommon1 Using cfiNames0
        CFI CodeAlign 1
        CFI DataAlign -1
        CFI ReturnAddress ?RET CODE
        CFI CFA_DOVERLAY Used
        CFI CFA_IOVERLAY Used
        CFI CFA_SP SP+-2
        CFI CFA_PSP16 PSP16+0
        CFI CFA_XSP16 XSP16+0
        CFI `PSW.CY` SameValue
        CFI `B.BR0` SameValue
        CFI `B.BR1` SameValue
        CFI `B.BR2` SameValue
        CFI `B.BR3` SameValue
        CFI `B.BR4` SameValue
        CFI `B.BR5` SameValue
        CFI `B.BR6` SameValue
        CFI `B.BR7` SameValue
        CFI `VB.BR8` SameValue
        CFI `VB.BR9` SameValue
        CFI `VB.BR10` SameValue
        CFI `VB.BR11` SameValue
        CFI `VB.BR12` SameValue
        CFI `VB.BR13` SameValue
        CFI `VB.BR14` SameValue
        CFI `VB.BR15` SameValue
        CFI VB SameValue
        CFI B SameValue
        CFI A SameValue
        CFI PSW SameValue
        CFI DPL0 SameValue
        CFI DPH0 SameValue
        CFI R0 SameValue
        CFI R1 SameValue
        CFI R2 SameValue
        CFI R3 SameValue
        CFI R4 SameValue
        CFI R5 SameValue
        CFI R6 SameValue
        CFI R7 SameValue
        CFI V0 SameValue
        CFI V1 SameValue
        CFI V2 SameValue
        CFI V3 SameValue
        CFI V4 SameValue
        CFI V5 SameValue
        CFI V6 SameValue
        CFI V7 SameValue
        CFI PSPH Undefined
        CFI PSPL Undefined
        CFI XSPH Undefined
        CFI XSPL Undefined
        CFI ?RET Concat
        CFI ?BRET_EXT SameValue
        CFI ?RET_HIGH Frame(CFA_SP, 2)
        CFI ?RET_LOW Frame(CFA_SP, 1)
        CFI EndCommon cfiCommon1
        
afRegister          SYMBOL "afRegister"
osal_msg_receive    SYMBOL "osal_msg_receive"
osal_msg_deallocate SYMBOL "osal_msg_deallocate"
osal_start_timerEx  SYMBOL "osal_start_timerEx"
DS18B20_SendConvert SYMBOL "DS18B20_SendConvert"
DS18B20_GetTem      SYMBOL "DS18B20_GetTem"
InitialAD           SYMBOL "InitialAD"
Light_GetAdc        SYMBOL "Light_GetAdc"
SHT10_init          SYMBOL "SHT10_init"
SHT10_Measure       SYMBOL "SHT10_Measure"
SHT10_Calculate     SYMBOL "SHT10_Calculate"
HalLedBlink         SYMBOL "HalLedBlink"
io_init             SYMBOL "io_init"
getfire             SYMBOL "getfire"
osal_strlen         SYMBOL "osal_strlen"
AF_DataRequest      SYMBOL "AF_DataRequest"
??AF_DataRequest?relay SYMBOL "?relay", AF_DataRequest
??DS18B20_GetTem?relay SYMBOL "?relay", DS18B20_GetTem
??DS18B20_SendConvert?relay SYMBOL "?relay", DS18B20_SendConvert
??HalLedBlink?relay SYMBOL "?relay", HalLedBlink
??InitialAD?relay   SYMBOL "?relay", InitialAD
??Light_GetAdc?relay SYMBOL "?relay", Light_GetAdc
??SHT10_Calculate?relay SYMBOL "?relay", SHT10_Calculate
??SHT10_Measure?relay SYMBOL "?relay", SHT10_Measure
??SHT10_init?relay  SYMBOL "?relay", SHT10_init
??afRegister?relay  SYMBOL "?relay", afRegister
??getfire?relay     SYMBOL "?relay", getfire
??io_init?relay     SYMBOL "?relay", io_init
??osal_msg_deallocate?relay SYMBOL "?relay", osal_msg_deallocate
??osal_msg_receive?relay SYMBOL "?relay", osal_msg_receive
??osal_start_timerEx?relay SYMBOL "?relay", osal_start_timerEx
??osal_strlen?relay SYMBOL "?relay", osal_strlen
My_Task_Init        SYMBOL "My_Task_Init"
??My_Task_Init?relay SYMBOL "?relay", My_Task_Init
My_Task_Process_Event SYMBOL "My_Task_Process_Event"
??My_Task_Process_Event?relay SYMBOL "?relay", My_Task_Process_Event
My_Task_Process_MSG SYMBOL "My_Task_Process_MSG"
??My_Task_Process_MSG?relay SYMBOL "?relay", My_Task_Process_MSG
Send_Message        SYMBOL "Send_Message"
??Send_Message?relay SYMBOL "?relay", Send_Message

        EXTERN afRegister
        FUNCTION afRegister,0202H
        ARGFRAME ISTACK, 0, STACK
        ARGFRAME PSTACK, 0, STACK
        ARGFRAME XSTACK, 9, STACK
        ARGFRAME IOVERLAY, 0, STATIC
        ARGFRAME DOVERLAY, 0, STATIC
        EXTERN osal_msg_receive
        FUNCTION osal_msg_receive,0202H
        ARGFRAME ISTACK, 0, STACK
        ARGFRAME PSTACK, 0, STACK
        ARGFRAME XSTACK, 12, STACK
        ARGFRAME IOVERLAY, 0, STATIC
        ARGFRAME DOVERLAY, 0, STATIC
        EXTERN osal_msg_deallocate
        FUNCTION osal_msg_deallocate,0202H
        ARGFRAME ISTACK, 0, STACK
        ARGFRAME PSTACK, 0, STACK
        ARGFRAME XSTACK, 12, STACK
        ARGFRAME IOVERLAY, 0, STATIC
        ARGFRAME DOVERLAY, 0, STATIC
        EXTERN osal_start_timerEx
        FUNCTION osal_start_timerEx,0202H
        ARGFRAME ISTACK, 0, STACK
        ARGFRAME PSTACK, 0, STACK
        ARGFRAME XSTACK, 12, STACK
        ARGFRAME IOVERLAY, 0, STATIC
        ARGFRAME DOVERLAY, 0, STATIC
        EXTERN DS18B20_SendConvert
        FUNCTION DS18B20_SendConvert,0202H
        ARGFRAME ISTACK, 0, STACK
        ARGFRAME PSTACK, 0, STACK
        ARGFRAME XSTACK, 12, STACK
        ARGFRAME IOVERLAY, 0, STATIC
        ARGFRAME DOVERLAY, 0, STATIC
        EXTERN DS18B20_GetTem
        FUNCTION DS18B20_GetTem,0202H
        ARGFRAME ISTACK, 0, STACK
        ARGFRAME PSTACK, 0, STACK
        ARGFRAME XSTACK, 12, STACK
        ARGFRAME IOVERLAY, 0, STATIC
        ARGFRAME DOVERLAY, 0, STATIC
        EXTERN InitialAD
        FUNCTION InitialAD,0202H
        ARGFRAME ISTACK, 0, STACK
        ARGFRAME PSTACK, 0, STACK
        ARGFRAME XSTACK, 12, STACK
        ARGFRAME IOVERLAY, 0, STATIC
        ARGFRAME DOVERLAY, 0, STATIC
        EXTERN Light_GetAdc
        FUNCTION Light_GetAdc,0202H
        ARGFRAME ISTACK, 0, STACK
        ARGFRAME PSTACK, 0, STACK
        ARGFRAME XSTACK, 12, STACK
        ARGFRAME IOVERLAY, 0, STATIC
        ARGFRAME DOVERLAY, 0, STATIC
        EXTERN SHT10_init
        FUNCTION SHT10_init,0202H
        ARGFRAME ISTACK, 0, STACK
        ARGFRAME PSTACK, 0, STACK
        ARGFRAME XSTACK, 12, STACK
        ARGFRAME IOVERLAY, 0, STATIC
        ARGFRAME DOVERLAY, 0, STATIC
        EXTERN SHT10_Measure
        FUNCTION SHT10_Measure,0202H
        ARGFRAME ISTACK, 0, STACK
        ARGFRAME PSTACK, 0, STACK
        ARGFRAME XSTACK, 12, STACK
        ARGFRAME IOVERLAY, 0, STATIC
        ARGFRAME DOVERLAY, 0, STATIC
        EXTERN SHT10_Calculate
        FUNCTION SHT10_Calculate,0202H
        ARGFRAME ISTACK, 0, STACK
        ARGFRAME PSTACK, 0, STACK
        ARGFRAME XSTACK, 12, STACK
        ARGFRAME IOVERLAY, 0, STATIC
        ARGFRAME DOVERLAY, 0, STATIC
        EXTERN HalLedBlink
        FUNCTION HalLedBlink,0202H
        ARGFRAME ISTACK, 0, STACK
        ARGFRAME PSTACK, 0, STACK
        ARGFRAME XSTACK, 12, STACK
        ARGFRAME IOVERLAY, 0, STATIC
        ARGFRAME DOVERLAY, 0, STATIC
        EXTERN io_init
        FUNCTION io_init,0202H
        ARGFRAME ISTACK, 0, STACK
        ARGFRAME PSTACK, 0, STACK
        ARGFRAME XSTACK, 12, STACK
        ARGFRAME IOVERLAY, 0, STATIC
        ARGFRAME DOVERLAY, 0, STATIC
        EXTERN getfire
        FUNCTION getfire,0202H
        ARGFRAME ISTACK, 0, STACK
        ARGFRAME PSTACK, 0, STACK
        ARGFRAME XSTACK, 12, STACK
        ARGFRAME IOVERLAY, 0, STATIC
        ARGFRAME DOVERLAY, 0, STATIC
        EXTERN osal_strlen
        FUNCTION osal_strlen,0202H
        ARGFRAME ISTACK, 0, STACK
        ARGFRAME PSTACK, 0, STACK
        ARGFRAME XSTACK, 15, STACK
        ARGFRAME IOVERLAY, 0, STATIC
        ARGFRAME DOVERLAY, 0, STATIC
        EXTERN AF_DataRequest
        FUNCTION AF_DataRequest,0202H
        ARGFRAME ISTACK, 0, STACK
        ARGFRAME PSTACK, 0, STACK
        ARGFRAME XSTACK, 19, STACK
        ARGFRAME IOVERLAY, 0, STATIC
        ARGFRAME DOVERLAY, 0, STATIC
        EXTERN ??AF_DataRequest?relay
        FUNCTION ??AF_DataRequest?relay,00H
        EXTERN ??DS18B20_GetTem?relay
        FUNCTION ??DS18B20_GetTem?relay,00H
        EXTERN ??DS18B20_SendConvert?relay
        FUNCTION ??DS18B20_SendConvert?relay,00H
        EXTERN ??HalLedBlink?relay
        FUNCTION ??HalLedBlink?relay,00H
        EXTERN ??InitialAD?relay
        FUNCTION ??InitialAD?relay,00H
        EXTERN ??Light_GetAdc?relay
        FUNCTION ??Light_GetAdc?relay,00H
        EXTERN ??SHT10_Calculate?relay
        FUNCTION ??SHT10_Calculate?relay,00H
        EXTERN ??SHT10_Measure?relay
        FUNCTION ??SHT10_Measure?relay,00H
        EXTERN ??SHT10_init?relay
        FUNCTION ??SHT10_init?relay,00H
        EXTERN ??afRegister?relay
        FUNCTION ??afRegister?relay,00H
        EXTERN ??getfire?relay
        FUNCTION ??getfire?relay,00H
        EXTERN ??io_init?relay
        FUNCTION ??io_init?relay,00H
        EXTERN ??osal_msg_deallocate?relay
        FUNCTION ??osal_msg_deallocate?relay,00H
        EXTERN ??osal_msg_receive?relay
        FUNCTION ??osal_msg_receive?relay,00H
        EXTERN ??osal_start_timerEx?relay
        FUNCTION ??osal_start_timerEx?relay,00H
        EXTERN ??osal_strlen?relay
        FUNCTION ??osal_strlen?relay,00H
        EXTERN sensor_data_value

// E:\Zigbee-timer\Texas Instruments\Projects\zstack\Samples\MyfirstAPP\Source\MyfirstAppRouterManage.c
//    1 #include "OSAL_MyfirstAppRouter.h"
//    2 #include "MyfirstApp.h"
//    3 #include "OnBoard.h"

        ASEGN SFR_AN:DATA:NOROOT,0a0H
// union <unnamed> volatile __sfr _A_P2
_A_P2:
        DATA8
        DS 1

        ASEGN SFR_AN:DATA:NOROOT,0ffH
// unsigned char volatile __sfr P2DIR
P2DIR:
        DATA8
        DS 1
//    4 #include "hal_led.h"
//    5 #include "DS18B20.h"
//    6 #include "Light.h"
//    7 #include "fire.h"
//    8 #include "SHT10.h"
//    9 #include "Basic.h"
//   10 
//   11 #define  myID 1
//   12 

        RSEG XDATA_Z:XDATA:NOROOT(0)
        DATA8
//   13 byte     My_TaskID;
My_TaskID:
        DS 1
        REQUIRE __INIT_XDATA_Z

        RSEG XDATA_Z:XDATA:NOROOT(0)
        DATA8
//   14 uint8    TransID = 0;
TransID:
        DS 1
        REQUIRE __INIT_XDATA_Z

        RSEG XDATA_Z:XDATA:NOROOT(0)
        DATA8
//   15 uint8    tmp_msg[7];
tmp_msg:
        DS 7
        REQUIRE __INIT_XDATA_Z
//   16 //uint8    light_data[2]; 

        RSEG XDATA_Z:XDATA:NOROOT(0)
        DATA8
//   17 uint8    light=0;
light:
        DS 1
        REQUIRE __INIT_XDATA_Z
//   18 
//   19 //volatile static 

        RSEG XDATA_Z:XDATA:NOROOT(0)
        DATA8
//   20 uint8 temperature=0, humi=0;
temperature:
        DS 1
        REQUIRE __INIT_XDATA_Z

        RSEG XDATA_Z:XDATA:NOROOT(0)
        DATA8
humi:
        DS 1
        REQUIRE __INIT_XDATA_Z

        RSEG XDATA_Z:XDATA:NOROOT(0)
        DATA16
//   21 uint16 uTempValue, uHumiValue;
uTempValue:
        DS 2
        REQUIRE __INIT_XDATA_Z

        RSEG XDATA_Z:XDATA:NOROOT(0)
        DATA16
uHumiValue:
        DS 2
        REQUIRE __INIT_XDATA_Z

        RSEG XDATA_Z:XDATA:NOROOT(0)
        DATA32
//   22 float fTempValue, fHumiValue;
fTempValue:
        DS 4
        REQUIRE __INIT_XDATA_Z

        RSEG XDATA_Z:XDATA:NOROOT(0)
        DATA32
fHumiValue:
        DS 4
        REQUIRE __INIT_XDATA_Z
//   23 
//   24 

        RSEG XDATA_Z:XDATA:NOROOT(0)
        DATA8
//   25 uint8    fire1=0;
fire1:
        DS 1
        REQUIRE __INIT_XDATA_Z

        RSEG XDATA_Z:XDATA:NOROOT(0)
        DATA8
//   26 afAddrType_t   multi_DstAddr;
multi_DstAddr:
        DS 12
        REQUIRE __INIT_XDATA_Z

        RSEG XDATA_Z:XDATA:NOROOT(0)
        DATA8
//   27 afAddrType_t   Single_DstAddr;
Single_DstAddr:
        DS 12
        REQUIRE __INIT_XDATA_Z
//   28 
//   29 //存了当前节点的网络状态，我们将他初始化为'未加入网'

        RSEG XDATA_I:XDATA:NOROOT(0)
//   30 devStates_t  NwkState = DEV_INIT;
NwkState:
        DATA8
        DS 1
        REQUIRE `?<Initializer for NwkState>`
        REQUIRE __INIT_XDATA_I
//   31 
//   32 void My_Task_Process_MSG ( afIncomingMSGPacket_t *msg );
//   33 void Send_Message(void);
//   34 
//   35 //*************************************************
//   36 //此任务的端点描述，它定义了此任务作为 ZigBee 应用程序对象的所有信息
//   37 //我们将会在初始化函数中为它赋值。然后将他注册到应用程序框架中。

        RSEG XDATA_Z:XDATA:NOROOT(0)
        DATA8
//   38 endPointDesc_t   My_EndPoint_Desc;
My_EndPoint_Desc:
        DS 6
        REQUIRE __INIT_XDATA_Z
//   39 
//   40 
//   41 //保存了一个簇 ID 的列表 ， 所有有关于此任务的簇都需要在此定义

        RSEG XDATA_ROM_C:CONST:REORDER:NOROOT(0)
        DATA32
//   42 const uint16 My_InCluster_List[MY_ENDPOINT_MAX_OUTCLUSTERS] =
My_InCluster_List:
        DATA16
        DW 3
        DW 4
//   43 { 
//   44   CLUSTER_1_ID,
//   45   CLUSTER_2_ID
//   46 };
//   47 

        RSEG XDATA_ROM_C:CONST:REORDER:NOROOT(0)
        DATA32
//   48 const uint16 My_OutCluster_List[MY_ENDPOINT_MAX_INCLUSTERS] =
My_OutCluster_List:
        DATA16
        DW 3
        DW 4
//   49 { 
//   50   CLUSTER_1_ID,
//   51   CLUSTER_2_ID
//   52 };
//   53 
//   54 //此端点的简单描述，它保存了此任务的一些基本信息

        RSEG XDATA_ROM_C:CONST:REORDER:NOROOT(0)
        DATA8
//   55 const SimpleDescriptionFormat_t    My_EndPoint_SimpleDesc  =
My_EndPoint_SimpleDesc:
        DB 15
        DATA16
        DW 3847
        DW 2
        DATA8
        DB 0
        DB 2
        DATA16
        DW My_InCluster_List
        DATA8
        DB 2
        DATA16
        DW My_OutCluster_List
//   56 {
//   57      MY_ENDPOINT_NO,
//   58      MY_ENDPOINT_PROFID,
//   59      MY_ENDPOINT_DEVICEID,
//   60      MY_ENDPOINT_DEVICE_VERSION,
//   61      MY_ENDPOINT_FLAGS,
//   62      MY_ENDPOINT_MAX_INCLUSTERS,
//   63      (uint16*)My_InCluster_List,
//   64      MY_ENDPOINT_MAX_OUTCLUSTERS,
//   65      (uint16*)My_OutCluster_List
//   66 };
//   67      
//   68 
//   69 //********************************************************

        RSEG BANKED_CODE:CODE:NOROOT(0)
//   70 void My_Task_Init( byte task_id )
My_Task_Init:
        CFI Block cfiBlock0 Using cfiCommon0
        CFI Function My_Task_Init
        CODE
//   71 {
        FUNCALL My_Task_Init, afRegister
        LOCFRAME ISTACK, 0, STACK
        LOCFRAME PSTACK, 0, STACK
        LOCFRAME XSTACK, 9, STACK
        LOCFRAME IOVERLAY, 0, STATIC
        LOCFRAME DOVERLAY, 0, STATIC
        ARGFRAME ISTACK, 0, STACK
        ARGFRAME PSTACK, 0, STACK
        ARGFRAME XSTACK, 9, STACK
        ARGFRAME IOVERLAY, 0, STATIC
        ARGFRAME DOVERLAY, 0, STATIC
        MOV     A,#-0x9
        LCALL   ?BANKED_ENTER_XDATA
        CFI DPH0 load(1, XDATA, add(CFA_XSP16, literal(-1)))
        CFI DPL0 load(1, XDATA, add(CFA_XSP16, literal(-2)))
        CFI ?BRET_EXT load(1, XDATA, add(CFA_XSP16, literal(-3)))
        CFI ?RET_HIGH load(1, XDATA, add(CFA_XSP16, literal(-4)))
        CFI ?RET_LOW load(1, XDATA, add(CFA_XSP16, literal(-5)))
        CFI R7 load(1, XDATA, add(CFA_XSP16, literal(-6)))
        CFI V0 load(1, XDATA, add(CFA_XSP16, literal(-7)))
        CFI VB load(1, XDATA, add(CFA_XSP16, literal(-8)))
        CFI R6 load(1, XDATA, add(CFA_XSP16, literal(-9)))
        CFI CFA_SP SP+0
        CFI CFA_XSP16 add(XSP16, 9)
        ; Saved register size: 9
        ; Auto size: 0
        MOV     A,R1
//   72   
//   73     My_TaskID = task_id;
        MOV     DPTR,#My_TaskID
        MOVX    @DPTR,A
//   74 
//   75     //设置单播信息
//   76     Single_DstAddr.addrMode = (afAddrMode_t)Addr16Bit;
        MOV     DPTR,#Single_DstAddr + 8
        MOV     A,#0x2
        MOVX    @DPTR,A
//   77     Single_DstAddr.endPoint = MY_ENDPOINT_NO;
        INC     DPTR
        MOV     A,#0xf
        MOVX    @DPTR,A
//   78     Single_DstAddr.addr.shortAddr = 0x0000;//协调器默认短地址为0x0000
        MOV     DPTR,#Single_DstAddr
        CLR     A
        MOVX    @DPTR,A
        INC     DPTR
        MOVX    @DPTR,A
//   79     
//   80     My_EndPoint_Desc.endPoint = MY_ENDPOINT_NO;
        MOV     DPTR,#My_EndPoint_Desc
        MOV     A,#0xf
        MOVX    @DPTR,A
//   81     My_EndPoint_Desc.task_id = &My_TaskID;
        INC     DPTR
        MOV     A,#My_TaskID & 0xff
        MOVX    @DPTR,A
        INC     DPTR
        MOV     A,#(My_TaskID >> 8) & 0xff
        MOVX    @DPTR,A
//   82     My_EndPoint_Desc.simpleDesc = 
//   83         (SimpleDescriptionFormat_t*)&My_EndPoint_SimpleDesc;
        INC     DPTR
        MOV     A,#My_EndPoint_SimpleDesc & 0xff
        MOVX    @DPTR,A
        INC     DPTR
        MOV     A,#(My_EndPoint_SimpleDesc >> 8) & 0xff
        MOVX    @DPTR,A
//   84     My_EndPoint_Desc.latencyReq = noLatencyReqs;
        INC     DPTR
        CLR     A
        MOVX    @DPTR,A
//   85 
//   86     afRegister(&My_EndPoint_Desc);
        ; Setup parameters for call to function afRegister
        MOV     R2,#My_EndPoint_Desc & 0xff
        MOV     R3,#(My_EndPoint_Desc >> 8) & 0xff
        LCALL   ??afRegister?relay
//   87     
//   88     
//   89 }
        MOV     R7,#0x1
        LJMP    ?BANKED_LEAVE_XDATA
        CFI EndBlock cfiBlock0
//   90 
//   91 //**********************************************************

        RSEG BANKED_CODE:CODE:NOROOT(0)
//   92 UINT16 My_Task_Process_Event(byte task_id,UINT16 events)
My_Task_Process_Event:
        CFI Block cfiBlock1 Using cfiCommon0
        CFI Function My_Task_Process_Event
        CODE
//   93 {    
        FUNCALL My_Task_Process_Event, osal_msg_receive
        LOCFRAME ISTACK, 0, STACK
        LOCFRAME PSTACK, 0, STACK
        LOCFRAME XSTACK, 12, STACK
        LOCFRAME IOVERLAY, 0, STATIC
        LOCFRAME DOVERLAY, 0, STATIC
        ARGFRAME ISTACK, 0, STACK
        ARGFRAME PSTACK, 0, STACK
        ARGFRAME XSTACK, 12, STACK
        ARGFRAME IOVERLAY, 0, STATIC
        ARGFRAME DOVERLAY, 0, STATIC
        FUNCALL My_Task_Process_Event, My_Task_Process_MSG
        LOCFRAME ISTACK, 0, STACK
        LOCFRAME PSTACK, 0, STACK
        LOCFRAME XSTACK, 12, STACK
        LOCFRAME IOVERLAY, 0, STATIC
        LOCFRAME DOVERLAY, 0, STATIC
        ARGFRAME ISTACK, 0, STACK
        ARGFRAME PSTACK, 0, STACK
        ARGFRAME XSTACK, 12, STACK
        ARGFRAME IOVERLAY, 0, STATIC
        ARGFRAME DOVERLAY, 0, STATIC
        FUNCALL My_Task_Process_Event, osal_msg_deallocate
        LOCFRAME ISTACK, 0, STACK
        LOCFRAME PSTACK, 0, STACK
        LOCFRAME XSTACK, 12, STACK
        LOCFRAME IOVERLAY, 0, STATIC
        LOCFRAME DOVERLAY, 0, STATIC
        ARGFRAME ISTACK, 0, STACK
        ARGFRAME PSTACK, 0, STACK
        ARGFRAME XSTACK, 12, STACK
        ARGFRAME IOVERLAY, 0, STATIC
        ARGFRAME DOVERLAY, 0, STATIC
        FUNCALL My_Task_Process_Event, osal_msg_receive
        LOCFRAME ISTACK, 0, STACK
        LOCFRAME PSTACK, 0, STACK
        LOCFRAME XSTACK, 12, STACK
        LOCFRAME IOVERLAY, 0, STATIC
        LOCFRAME DOVERLAY, 0, STATIC
        ARGFRAME ISTACK, 0, STACK
        ARGFRAME PSTACK, 0, STACK
        ARGFRAME XSTACK, 12, STACK
        ARGFRAME IOVERLAY, 0, STATIC
        ARGFRAME DOVERLAY, 0, STATIC
        FUNCALL My_Task_Process_Event, osal_start_timerEx
        LOCFRAME ISTACK, 0, STACK
        LOCFRAME PSTACK, 0, STACK
        LOCFRAME XSTACK, 12, STACK
        LOCFRAME IOVERLAY, 0, STATIC
        LOCFRAME DOVERLAY, 0, STATIC
        ARGFRAME ISTACK, 0, STACK
        ARGFRAME PSTACK, 0, STACK
        ARGFRAME XSTACK, 12, STACK
        ARGFRAME IOVERLAY, 0, STATIC
        ARGFRAME DOVERLAY, 0, STATIC
        FUNCALL My_Task_Process_Event, osal_start_timerEx
        LOCFRAME ISTACK, 0, STACK
        LOCFRAME PSTACK, 0, STACK
        LOCFRAME XSTACK, 12, STACK
        LOCFRAME IOVERLAY, 0, STATIC
        LOCFRAME DOVERLAY, 0, STATIC
        ARGFRAME ISTACK, 0, STACK
        ARGFRAME PSTACK, 0, STACK
        ARGFRAME XSTACK, 12, STACK
        ARGFRAME IOVERLAY, 0, STATIC
        ARGFRAME DOVERLAY, 0, STATIC
        FUNCALL My_Task_Process_Event, DS18B20_SendConvert
        LOCFRAME ISTACK, 0, STACK
        LOCFRAME PSTACK, 0, STACK
        LOCFRAME XSTACK, 12, STACK
        LOCFRAME IOVERLAY, 0, STATIC
        LOCFRAME DOVERLAY, 0, STATIC
        ARGFRAME ISTACK, 0, STACK
        ARGFRAME PSTACK, 0, STACK
        ARGFRAME XSTACK, 12, STACK
        ARGFRAME IOVERLAY, 0, STATIC
        ARGFRAME DOVERLAY, 0, STATIC
        FUNCALL My_Task_Process_Event, DS18B20_GetTem
        LOCFRAME ISTACK, 0, STACK
        LOCFRAME PSTACK, 0, STACK
        LOCFRAME XSTACK, 12, STACK
        LOCFRAME IOVERLAY, 0, STATIC
        LOCFRAME DOVERLAY, 0, STATIC
        ARGFRAME ISTACK, 0, STACK
        ARGFRAME PSTACK, 0, STACK
        ARGFRAME XSTACK, 12, STACK
        ARGFRAME IOVERLAY, 0, STATIC
        ARGFRAME DOVERLAY, 0, STATIC
        FUNCALL My_Task_Process_Event, InitialAD
        LOCFRAME ISTACK, 0, STACK
        LOCFRAME PSTACK, 0, STACK
        LOCFRAME XSTACK, 12, STACK
        LOCFRAME IOVERLAY, 0, STATIC
        LOCFRAME DOVERLAY, 0, STATIC
        ARGFRAME ISTACK, 0, STACK
        ARGFRAME PSTACK, 0, STACK
        ARGFRAME XSTACK, 12, STACK
        ARGFRAME IOVERLAY, 0, STATIC
        ARGFRAME DOVERLAY, 0, STATIC
        FUNCALL My_Task_Process_Event, Light_GetAdc
        LOCFRAME ISTACK, 0, STACK
        LOCFRAME PSTACK, 0, STACK
        LOCFRAME XSTACK, 12, STACK
        LOCFRAME IOVERLAY, 0, STATIC
        LOCFRAME DOVERLAY, 0, STATIC
        ARGFRAME ISTACK, 0, STACK
        ARGFRAME PSTACK, 0, STACK
        ARGFRAME XSTACK, 12, STACK
        ARGFRAME IOVERLAY, 0, STATIC
        ARGFRAME DOVERLAY, 0, STATIC
        FUNCALL My_Task_Process_Event, SHT10_init
        LOCFRAME ISTACK, 0, STACK
        LOCFRAME PSTACK, 0, STACK
        LOCFRAME XSTACK, 12, STACK
        LOCFRAME IOVERLAY, 0, STATIC
        LOCFRAME DOVERLAY, 0, STATIC
        ARGFRAME ISTACK, 0, STACK
        ARGFRAME PSTACK, 0, STACK
        ARGFRAME XSTACK, 12, STACK
        ARGFRAME IOVERLAY, 0, STATIC
        ARGFRAME DOVERLAY, 0, STATIC
        FUNCALL My_Task_Process_Event, SHT10_Measure
        LOCFRAME ISTACK, 0, STACK
        LOCFRAME PSTACK, 0, STACK
        LOCFRAME XSTACK, 12, STACK
        LOCFRAME IOVERLAY, 0, STATIC
        LOCFRAME DOVERLAY, 0, STATIC
        ARGFRAME ISTACK, 0, STACK
        ARGFRAME PSTACK, 0, STACK
        ARGFRAME XSTACK, 12, STACK
        ARGFRAME IOVERLAY, 0, STATIC
        ARGFRAME DOVERLAY, 0, STATIC
        FUNCALL My_Task_Process_Event, SHT10_Measure
        LOCFRAME ISTACK, 0, STACK
        LOCFRAME PSTACK, 0, STACK
        LOCFRAME XSTACK, 12, STACK
        LOCFRAME IOVERLAY, 0, STATIC
        LOCFRAME DOVERLAY, 0, STATIC
        ARGFRAME ISTACK, 0, STACK
        ARGFRAME PSTACK, 0, STACK
        ARGFRAME XSTACK, 12, STACK
        ARGFRAME IOVERLAY, 0, STATIC
        ARGFRAME DOVERLAY, 0, STATIC
        FUNCALL My_Task_Process_Event, SHT10_Calculate
        LOCFRAME ISTACK, 0, STACK
        LOCFRAME PSTACK, 0, STACK
        LOCFRAME XSTACK, 12, STACK
        LOCFRAME IOVERLAY, 0, STATIC
        LOCFRAME DOVERLAY, 0, STATIC
        ARGFRAME ISTACK, 0, STACK
        ARGFRAME PSTACK, 0, STACK
        ARGFRAME XSTACK, 12, STACK
        ARGFRAME IOVERLAY, 0, STATIC
        ARGFRAME DOVERLAY, 0, STATIC
        FUNCALL My_Task_Process_Event, SHT10_Calculate
        LOCFRAME ISTACK, 0, STACK
        LOCFRAME PSTACK, 0, STACK
        LOCFRAME XSTACK, 12, STACK
        LOCFRAME IOVERLAY, 0, STATIC
        LOCFRAME DOVERLAY, 0, STATIC
        ARGFRAME ISTACK, 0, STACK
        ARGFRAME PSTACK, 0, STACK
        ARGFRAME XSTACK, 12, STACK
        ARGFRAME IOVERLAY, 0, STATIC
        ARGFRAME DOVERLAY, 0, STATIC
        FUNCALL My_Task_Process_Event, Send_Message
        LOCFRAME ISTACK, 0, STACK
        LOCFRAME PSTACK, 0, STACK
        LOCFRAME XSTACK, 12, STACK
        LOCFRAME IOVERLAY, 0, STATIC
        LOCFRAME DOVERLAY, 0, STATIC
        ARGFRAME ISTACK, 0, STACK
        ARGFRAME PSTACK, 0, STACK
        ARGFRAME XSTACK, 12, STACK
        ARGFRAME IOVERLAY, 0, STATIC
        ARGFRAME DOVERLAY, 0, STATIC
        FUNCALL My_Task_Process_Event, HalLedBlink
        LOCFRAME ISTACK, 0, STACK
        LOCFRAME PSTACK, 0, STACK
        LOCFRAME XSTACK, 12, STACK
        LOCFRAME IOVERLAY, 0, STATIC
        LOCFRAME DOVERLAY, 0, STATIC
        ARGFRAME ISTACK, 0, STACK
        ARGFRAME PSTACK, 0, STACK
        ARGFRAME XSTACK, 12, STACK
        ARGFRAME IOVERLAY, 0, STATIC
        ARGFRAME DOVERLAY, 0, STATIC
        FUNCALL My_Task_Process_Event, osal_start_timerEx
        LOCFRAME ISTACK, 0, STACK
        LOCFRAME PSTACK, 0, STACK
        LOCFRAME XSTACK, 12, STACK
        LOCFRAME IOVERLAY, 0, STATIC
        LOCFRAME DOVERLAY, 0, STATIC
        ARGFRAME ISTACK, 0, STACK
        ARGFRAME PSTACK, 0, STACK
        ARGFRAME XSTACK, 12, STACK
        ARGFRAME IOVERLAY, 0, STATIC
        ARGFRAME DOVERLAY, 0, STATIC
        FUNCALL My_Task_Process_Event, io_init
        LOCFRAME ISTACK, 0, STACK
        LOCFRAME PSTACK, 0, STACK
        LOCFRAME XSTACK, 12, STACK
        LOCFRAME IOVERLAY, 0, STATIC
        LOCFRAME DOVERLAY, 0, STATIC
        ARGFRAME ISTACK, 0, STACK
        ARGFRAME PSTACK, 0, STACK
        ARGFRAME XSTACK, 12, STACK
        ARGFRAME IOVERLAY, 0, STATIC
        ARGFRAME DOVERLAY, 0, STATIC
        FUNCALL My_Task_Process_Event, getfire
        LOCFRAME ISTACK, 0, STACK
        LOCFRAME PSTACK, 0, STACK
        LOCFRAME XSTACK, 12, STACK
        LOCFRAME IOVERLAY, 0, STATIC
        LOCFRAME DOVERLAY, 0, STATIC
        ARGFRAME ISTACK, 0, STACK
        ARGFRAME PSTACK, 0, STACK
        ARGFRAME XSTACK, 12, STACK
        ARGFRAME IOVERLAY, 0, STATIC
        ARGFRAME DOVERLAY, 0, STATIC
        FUNCALL My_Task_Process_Event, HalLedBlink
        LOCFRAME ISTACK, 0, STACK
        LOCFRAME PSTACK, 0, STACK
        LOCFRAME XSTACK, 12, STACK
        LOCFRAME IOVERLAY, 0, STATIC
        LOCFRAME DOVERLAY, 0, STATIC
        ARGFRAME ISTACK, 0, STACK
        ARGFRAME PSTACK, 0, STACK
        ARGFRAME XSTACK, 12, STACK
        ARGFRAME IOVERLAY, 0, STATIC
        ARGFRAME DOVERLAY, 0, STATIC
        FUNCALL My_Task_Process_Event, osal_start_timerEx
        LOCFRAME ISTACK, 0, STACK
        LOCFRAME PSTACK, 0, STACK
        LOCFRAME XSTACK, 12, STACK
        LOCFRAME IOVERLAY, 0, STATIC
        LOCFRAME DOVERLAY, 0, STATIC
        ARGFRAME ISTACK, 0, STACK
        ARGFRAME PSTACK, 0, STACK
        ARGFRAME XSTACK, 12, STACK
        ARGFRAME IOVERLAY, 0, STATIC
        ARGFRAME DOVERLAY, 0, STATIC
        MOV     A,#-0xc
        LCALL   ?BANKED_ENTER_XDATA
        CFI DPH0 load(1, XDATA, add(CFA_XSP16, literal(-1)))
        CFI DPL0 load(1, XDATA, add(CFA_XSP16, literal(-2)))
        CFI ?BRET_EXT load(1, XDATA, add(CFA_XSP16, literal(-3)))
        CFI ?RET_HIGH load(1, XDATA, add(CFA_XSP16, literal(-4)))
        CFI ?RET_LOW load(1, XDATA, add(CFA_XSP16, literal(-5)))
        CFI R7 load(1, XDATA, add(CFA_XSP16, literal(-6)))
        CFI V3 load(1, XDATA, add(CFA_XSP16, literal(-7)))
        CFI V2 load(1, XDATA, add(CFA_XSP16, literal(-8)))
        CFI V1 load(1, XDATA, add(CFA_XSP16, literal(-9)))
        CFI V0 load(1, XDATA, add(CFA_XSP16, literal(-10)))
        CFI VB load(1, XDATA, add(CFA_XSP16, literal(-11)))
        CFI R6 load(1, XDATA, add(CFA_XSP16, literal(-12)))
        CFI CFA_SP SP+0
        CFI CFA_XSP16 add(XSP16, 12)
        ; Saved register size: 12
        ; Auto size: 0
        MOV     A,R2
        MOV     R6,A
        MOV     A,R3
        MOV     R7,A
//   94     //当一个消息被发送给任务时,SYS_EVENT_MSG,事件会被传递给任务 
//   95   
//   96     //表示有一个消息等待处理。
//   97     afIncomingMSGPacket_t *MSGpkt;
//   98     if ( events & SYS_EVENT_MSG )
        ANL     A,#0x80
        JZ      ??My_Task_Process_Event_0
//   99     {
//  100         //从消息队列中取出消息
//  101         MSGpkt = (afIncomingMSGPacket_t *)osal_msg_receive(My_TaskID);
        ; Setup parameters for call to function osal_msg_receive
        SJMP    ??My_Task_Process_Event_1
//  102         while ( MSGpkt )
//  103         {
//  104             switch ( MSGpkt->hdr.event )
//  105             {
//  106                 /*
//  107                 当设备成功加入网络以后， ZigBee 设备对象（ZDO）会给所有已经在应用程序框架中注册过的任务
//  108                 （也就是作为 ZigBee 的应用程序对象存在的任务）发送一个ZDO_STATE_CHANGE消息，消息的状
//  109                 态指示了当前网络的状态。
//  110                 */
//  111             case ZDO_STATE_CHANGE://网络状态改变事件
//  112                  NwkState = (devStates_t)MSGpkt->hdr.status;
//  113                 if ( NwkState == DEV_END_DEVICE || NwkState == DEV_ROUTER )
//  114                 {  
//  115                     osal_start_timerEx(My_TaskID, TMP_MSG_EVT_ID, 4000);
//  116                     osal_start_timerEx(My_TaskID, FIRE_MSG_EVT_ID, 1000);//开启OSAL定时器，定时检测火焰标志
//  117                 }
//  118                 break;
//  119             case AF_INCOMING_MSG_CMD:  //模块接收到数据信息事件
//  120                  My_Task_Process_MSG( MSGpkt );
??My_Task_Process_Event_2:
        ; Setup parameters for call to function My_Task_Process_MSG
        MOV     R2,?V0 + 0
        MOV     R3,?V0 + 1
        LCALL   ??My_Task_Process_MSG?relay
//  121                  break;
//  122                  
//  123             case KEY_CHANGE://按键事件
//  124                
//  125                 break;
//  126            
//  127             default:
//  128                 break;
//  129             }
//  130             //释放消息所在的消息缓冲区
//  131             osal_msg_deallocate( (uint8 *)MSGpkt );
??My_Task_Process_Event_3:
        ; Setup parameters for call to function osal_msg_deallocate
        MOV     R2,?V0 + 0
        MOV     R3,?V0 + 1
        LCALL   ??osal_msg_deallocate?relay
//  132             MSGpkt = (afIncomingMSGPacket_t*)osal_msg_receive(My_TaskID);
        ; Setup parameters for call to function osal_msg_receive
??My_Task_Process_Event_1:
        MOV     DPTR,#My_TaskID
        MOVX    A,@DPTR
        MOV     R1,A
        LCALL   ??osal_msg_receive?relay
        MOV     ?V0 + 0,R2
        MOV     ?V0 + 1,R3
        MOV     A,?V0 + 0
        ORL     A,?V0 + 1
        JZ      ??My_Task_Process_Event_4
        MOV     DPL,?V0 + 0
        MOV     DPH,?V0 + 1
        MOVX    A,@DPTR
        ADD     A,#-0x1a
        JZ      ??My_Task_Process_Event_2
        ADD     A,#0x49
        JNZ     ??My_Task_Process_Event_3
        INC     DPTR
        MOVX    A,@DPTR
        MOV     DPTR,#NwkState
        MOVX    @DPTR,A
        XRL     A,#0x6
        JZ      ??My_Task_Process_Event_5
        MOVX    A,@DPTR
        XRL     A,#0x7
        JNZ     ??My_Task_Process_Event_3
??My_Task_Process_Event_5:
        ; Setup parameters for call to function osal_start_timerEx
        MOV     R4,#-0x60
        MOV     R5,#0xf
        LCALL   ?Subroutine1 & 0xFFFF
??CrossCallReturnLabel_2:
        ; Setup parameters for call to function osal_start_timerEx
        MOV     R4,#-0x18
        MOV     R5,#0x3
        MOV     R2,#0x8
        LCALL   ??Subroutine3_0 & 0xFFFF
//  133         }
??CrossCallReturnLabel_4:
        SJMP    ??My_Task_Process_Event_3
//  134         
//  135         return (events ^ SYS_EVENT_MSG);
??My_Task_Process_Event_4:
        MOV     A,R6
        MOV     R2,A
        MOV     A,R7
        XRL     A,#0x80
??My_Task_Process_Event_6:
        MOV     R3,A
        LJMP    ??My_Task_Process_Event_7 & 0xFFFF
//  136     }
//  137     
//  138     //发送温度值的事件
//  139   if(events & TMP_MSG_EVT_ID)  
??My_Task_Process_Event_0:
        MOV     A,R6
        MOV     C,0xE0 /* A   */.0
        JC      $+5
        LJMP    ??My_Task_Process_Event_8 & 0xFFFF
//  140     {
//  141         DS18B20_SendConvert();
        ; Setup parameters for call to function DS18B20_SendConvert
        LCALL   ??DS18B20_SendConvert?relay
//  142         DS18B20_GetTem();
        ; Setup parameters for call to function DS18B20_GetTem
        LCALL   ??DS18B20_GetTem?relay
//  143         tmp_msg[0] = myID;
        MOV     DPTR,#tmp_msg
        MOV     A,#0x1
        MOVX    @DPTR,A
//  144         tmp_msg[1] = sensor_data_value[1];
        MOV     DPTR,#sensor_data_value + 1
        MOVX    A,@DPTR
        MOV     DPTR,#tmp_msg + 1
        MOVX    @DPTR,A
//  145         tmp_msg[2] = sensor_data_value[0];
        MOV     DPTR,#sensor_data_value
        MOVX    A,@DPTR
        MOV     DPTR,#tmp_msg + 2
        MOVX    @DPTR,A
//  146         
//  147          //采集光照度
//  148         InitialAD();
        ; Setup parameters for call to function InitialAD
        LCALL   ??InitialAD?relay
//  149         light=Light_GetAdc();     
        ; Setup parameters for call to function Light_GetAdc
        LCALL   ??Light_GetAdc?relay
        MOV     A,R1
        MOV     DPTR,#light
        MOVX    @DPTR,A
//  150        // tmp_msg[3] = 0x33;
//  151         tmp_msg[3] = light;
        MOV     DPTR,#tmp_msg + 3
        MOVX    @DPTR,A
//  152         
//  153          //采集火焰数据
//  154          //io_init();
//  155          //fire1=getfire();
//  156          //setfire0();
//  157          //fire_data[0]=fire1;
//  158          tmp_msg[4] = fire1;
        MOV     DPTR,#fire1
        MOVX    A,@DPTR
        MOV     DPTR,#tmp_msg + 4
        MOVX    @DPTR,A
//  159          
//  160          //采集湿度数据
//  161          SHT10_init(1);
        ; Setup parameters for call to function SHT10_init
        MOV     R2,#0x1
        MOV     R3,#0x0
        LCALL   ??SHT10_init?relay
//  162         //读取温度值
//  163         SHT10_Measure( &uTempValue, 0, TEMPERATURE );
        ; Setup parameters for call to function SHT10_Measure
        MOV     R1,#0x1
        MOV     R4,#0x0
        MOV     R5,#0x0
        MOV     R2,#uTempValue & 0xff
        MOV     R3,#(uTempValue >> 8) & 0xff
        LCALL   ??SHT10_Measure?relay
//  164         SHT10_Measure( &uHumiValue, 0, HUMIDITY);
        ; Setup parameters for call to function SHT10_Measure
        MOV     R1,#0x2
        MOV     R4,#0x0
        MOV     R5,#0x0
        MOV     R2,#uHumiValue & 0xff
        MOV     R3,#(uHumiValue >> 8) & 0xff
        LCALL   ??SHT10_Measure?relay
//  165         //温湿度传感器线性度系数校准
//  166         fTempValue = SHT10_Calculate(uTempValue, TEMPERATURE);
        ; Setup parameters for call to function SHT10_Calculate
        MOV     R1,#0x1
        MOV     DPTR,#uTempValue
        LCALL   ?Subroutine2 & 0xFFFF
??CrossCallReturnLabel_0:
        MOV     DPTR,#fTempValue
        LCALL   ?XSTORE_R2345
//  167         fHumiValue = SHT10_Calculate(uHumiValue, HUMIDITY);
        ; Setup parameters for call to function SHT10_Calculate
        MOV     R1,#0x2
        MOV     DPTR,#uHumiValue
        LCALL   ?Subroutine2 & 0xFFFF
??CrossCallReturnLabel_1:
        MOV     DPTR,#fHumiValue
        LCALL   ?XSTORE_R2345
//  168         //temp = (uint16)(fTempValue );
//  169         
//  170         humi = (uint8)((uint16)(fHumiValue));
        MOV     DPTR,#fHumiValue
        LCALL   ?XLOAD_R2345
        LCALL   ?R2345_FLT_TO_L
        MOV     A,?V0 + 0
        MOV     DPTR,#humi
        MOVX    @DPTR,A
//  171         
//  172         tmp_msg[5] =humi;
        MOV     DPTR,#tmp_msg + 5
        MOVX    @DPTR,A
//  173         tmp_msg[6] = 0x55;
        INC     DPTR
        MOV     A,#0x55
        MOVX    @DPTR,A
//  174         
//  175         Send_Message();
        ; Setup parameters for call to function Send_Message
        LCALL   ??Send_Message?relay
//  176         HalLedBlink(HAL_LED_1,3,50,300);
        ; Setup parameters for call to function HalLedBlink
        MOV     R4,#0x2c
        MOV     R5,#0x1
        MOV     R3,#0x32
        MOV     R2,#0x3
        MOV     R1,#0x1
        LCALL   ??HalLedBlink?relay
//  177         osal_start_timerEx(My_TaskID, TMP_MSG_EVT_ID, (2000+myID) );
        ; Setup parameters for call to function osal_start_timerEx
        MOV     R4,#-0x2f
        MOV     R5,#0x7
        LCALL   ?Subroutine1 & 0xFFFF
//  178         
//  179         return (events ^ TMP_MSG_EVT_ID);
??CrossCallReturnLabel_3:
        MOV     A,R6
        XRL     A,#0x1
??My_Task_Process_Event_9:
        MOV     R2,A
        MOV     A,R7
        LJMP    ??My_Task_Process_Event_6 & 0xFFFF
//  180     }
//  181     
//  182 /*    //发送光照度值的事件（和上面发送温度的代码分属两个不同的节点.下载到哪个节点注释掉哪一部分）
//  183     
//  184 if(events & LIGHT_MSG_EVT_ID)  
//  185     {
//  186         InitialAD();
//  187         light=Light_GetAdc();
//  188         //light_data[0]=(light>>8)&0xff;
//  189        //light_data[1]=(light)&0xff;
//  190                 
//  191         tmp_msg[0] = myID;
//  192         tmp_msg[1] = 0x33;
//  193         tmp_msg[2] = light;
//  194         Send_Message();
//  195         HalLedBlink(HAL_LED_2,3,50,300);
//  196         osal_start_timerEx(My_TaskID, LIGHT_MSG_EVT_ID, (3000+myID) );
//  197         
//  198         return (events ^ LIGHT_MSG_EVT_ID);
//  199     }
//  200  */   
//  201     
//  202     
//  203     
//  204     
//  205     
//  206      //发送火焰传感器数据的事件
//  207    if(events & FIRE_MSG_EVT_ID)  
??My_Task_Process_Event_8:
        ANL     A,#0x8
        JZ      ??My_Task_Process_Event_10
//  208     {
//  209          io_init();
        ; Setup parameters for call to function io_init
        LCALL   ??io_init?relay
//  210 
//  211          fire1=getfire();
        ; Setup parameters for call to function getfire
        LCALL   ??getfire?relay
        MOV     A,R1
        MOV     DPTR,#fire1
        MOVX    @DPTR,A
//  212          //setfire0();
//  213          //fire_data[0]=fire1;
//  214          //tmp_msg[0] = myID;
//  215          //tmp_msg[1] = fire_data[0];
//  216          //tmp_msg[2] = 0x66;
//  217                  
//  218         //Send_Message();
//  219         HalLedBlink(HAL_LED_4,2,50,300);
        ; Setup parameters for call to function HalLedBlink
        MOV     R4,#0x2c
        MOV     R5,#0x1
        MOV     R3,#0x32
        MOV     R2,#0x2
        MOV     R1,#0x8
        LCALL   ??HalLedBlink?relay
//  220         osal_start_timerEx(My_TaskID, FIRE_MSG_EVT_ID, 200 );
        ; Setup parameters for call to function osal_start_timerEx
        MOV     R4,#-0x38
        MOV     R5,#0x0
        MOV     R2,#0x8
        LCALL   ??Subroutine3_0 & 0xFFFF
//  221         
//  222         return (events ^ FIRE_MSG_EVT_ID);
??CrossCallReturnLabel_5:
        MOV     A,R6
        XRL     A,#0x8
        SJMP    ??My_Task_Process_Event_9
//  223     }
//  224    
//  225     
//  226 
//  227     
//  228      //关闭蜂鸣器的事件
//  229     if(events & BEEP_OFF_EVT_ID) 
??My_Task_Process_Event_10:
        MOV     A,R6
        ANL     A,#0x2
        JZ      ??My_Task_Process_Event_11
//  230     {
//  231         BEEP_OFF;
        SETB    0xa0.0
        ANL     0xff,#0xfe
//  232     }
//  233       
//  234  
//  235     return 0;
??My_Task_Process_Event_11:
        MOV     R2,#0x0
        MOV     R3,#0x0
??My_Task_Process_Event_7:
        MOV     R7,#0x4
        LJMP    ?BANKED_LEAVE_XDATA
        CFI EndBlock cfiBlock1
        REQUIRE _A_P2
        REQUIRE P2DIR
//  236   
//  237     
//  238 }

        RSEG BANKED_CODE:CODE:NOROOT(0)
?Subroutine2:
        CFI Block cfiCond2 Using cfiCommon0
        CFI NoFunction
        CFI Conditional ??CrossCallReturnLabel_0
        CFI R6 load(1, XDATA, add(CFA_XSP16, literal(-12)))
        CFI VB load(1, XDATA, add(CFA_XSP16, literal(-11)))
        CFI V0 load(1, XDATA, add(CFA_XSP16, literal(-10)))
        CFI V1 load(1, XDATA, add(CFA_XSP16, literal(-9)))
        CFI V2 load(1, XDATA, add(CFA_XSP16, literal(-8)))
        CFI V3 load(1, XDATA, add(CFA_XSP16, literal(-7)))
        CFI R7 load(1, XDATA, add(CFA_XSP16, literal(-6)))
        CFI ?RET_LOW load(1, XDATA, add(CFA_XSP16, literal(-5)))
        CFI ?RET_HIGH load(1, XDATA, add(CFA_XSP16, literal(-4)))
        CFI ?BRET_EXT load(1, XDATA, add(CFA_XSP16, literal(-3)))
        CFI DPL0 load(1, XDATA, add(CFA_XSP16, literal(-2)))
        CFI DPH0 load(1, XDATA, add(CFA_XSP16, literal(-1)))
        CFI CFA_SP SP+0
        CFI CFA_XSP16 add(XSP16, 12)
        CFI Block cfiCond3 Using cfiCommon0
        CFI (cfiCond3) NoFunction
        CFI (cfiCond3) Conditional ??CrossCallReturnLabel_1
        CFI (cfiCond3) R6 load(1, XDATA, add(CFA_XSP16, literal(-12)))
        CFI (cfiCond3) VB load(1, XDATA, add(CFA_XSP16, literal(-11)))
        CFI (cfiCond3) V0 load(1, XDATA, add(CFA_XSP16, literal(-10)))
        CFI (cfiCond3) V1 load(1, XDATA, add(CFA_XSP16, literal(-9)))
        CFI (cfiCond3) V2 load(1, XDATA, add(CFA_XSP16, literal(-8)))
        CFI (cfiCond3) V3 load(1, XDATA, add(CFA_XSP16, literal(-7)))
        CFI (cfiCond3) R7 load(1, XDATA, add(CFA_XSP16, literal(-6)))
        CFI (cfiCond3) ?RET_LOW load(1, XDATA, add(CFA_XSP16, literal(-5)))
        CFI (cfiCond3) ?RET_HIGH load(1, XDATA, add(CFA_XSP16, literal(-4)))
        CFI (cfiCond3) ?BRET_EXT load(1, XDATA, add(CFA_XSP16, literal(-3)))
        CFI (cfiCond3) DPL0 load(1, XDATA, add(CFA_XSP16, literal(-2)))
        CFI (cfiCond3) DPH0 load(1, XDATA, add(CFA_XSP16, literal(-1)))
        CFI (cfiCond3) CFA_SP SP+0
        CFI (cfiCond3) CFA_XSP16 add(XSP16, 12)
        CFI Block cfiPicker4 Using cfiCommon1
        CFI (cfiPicker4) NoFunction
        CFI (cfiPicker4) Picker
        MOVX    A,@DPTR
        MOV     R2,A
        INC     DPTR
        MOVX    A,@DPTR
        MOV     R3,A
        LCALL   ??SHT10_Calculate?relay
        RET
        CFI EndBlock cfiCond2
        CFI EndBlock cfiCond3
        CFI EndBlock cfiPicker4
//  239 
//  240 //处理接收到的数据

        RSEG BANKED_CODE:CODE:NOROOT(0)
//  241 void My_Task_Process_MSG ( afIncomingMSGPacket_t *msg )
My_Task_Process_MSG:
        CFI Block cfiBlock5 Using cfiCommon0
        CFI Function My_Task_Process_MSG
        CODE
//  242 {
        FUNCALL My_Task_Process_MSG, osal_start_timerEx
        LOCFRAME ISTACK, 0, STACK
        LOCFRAME PSTACK, 0, STACK
        LOCFRAME XSTACK, 10, STACK
        LOCFRAME IOVERLAY, 0, STATIC
        LOCFRAME DOVERLAY, 0, STATIC
        ARGFRAME ISTACK, 0, STACK
        ARGFRAME PSTACK, 0, STACK
        ARGFRAME XSTACK, 10, STACK
        ARGFRAME IOVERLAY, 0, STATIC
        ARGFRAME DOVERLAY, 0, STATIC
        MOV     A,#-0xa
        LCALL   ?BANKED_ENTER_XDATA
        CFI DPH0 load(1, XDATA, add(CFA_XSP16, literal(-1)))
        CFI DPL0 load(1, XDATA, add(CFA_XSP16, literal(-2)))
        CFI ?BRET_EXT load(1, XDATA, add(CFA_XSP16, literal(-3)))
        CFI ?RET_HIGH load(1, XDATA, add(CFA_XSP16, literal(-4)))
        CFI ?RET_LOW load(1, XDATA, add(CFA_XSP16, literal(-5)))
        CFI R7 load(1, XDATA, add(CFA_XSP16, literal(-6)))
        CFI V1 load(1, XDATA, add(CFA_XSP16, literal(-7)))
        CFI V0 load(1, XDATA, add(CFA_XSP16, literal(-8)))
        CFI VB load(1, XDATA, add(CFA_XSP16, literal(-9)))
        CFI R6 load(1, XDATA, add(CFA_XSP16, literal(-10)))
        CFI CFA_SP SP+0
        CFI CFA_XSP16 add(XSP16, 10)
        ; Saved register size: 10
        ; Auto size: 0
//  243     switch ( msg->clusterId )
        MOV     DPL,R2
        MOV     DPH,R3
        INC     DPTR
        INC     DPTR
        INC     DPTR
        INC     DPTR
        MOVX    A,@DPTR
        MOV     ?V0 + 0,A
        INC     DPTR
        MOVX    A,@DPTR
        MOV     ?V0 + 1,A
        MOV     R0,#?V0 + 0
        LCALL   ?US_SWITCH_DENSE
`?<Jumptable for My_Task_Process_MSG>_0`:
        DATA
        DATA16
        DATA
        DATA16
        DW        3
        DATA
        DATA8
        DATA
        DATA8
        DB        1
        DATA
        DATA16
        DATA
        DATA16
        DW        ??CrossCallReturnLabel_6
        DATA
        DATA16
        DATA
        DATA16
        DW        ??My_Task_Process_MSG_0
        DATA
        DATA16
        DATA
        DATA16
        DW        ??My_Task_Process_MSG_0
        CODE
//  244     {
//  245          break;
//  246     case CLUSTER_1_ID :
//  247 
//  248          
//  249     case CLUSTER_2_ID:
//  250          if(  ('O' == msg->cmd.Data[0])&&
//  251               ('P' == msg->cmd.Data[1])&&  
//  252               ('E' == msg->cmd.Data[2])&&
//  253               ('N' == msg->cmd.Data[3])    )
??My_Task_Process_MSG_0:
        MOV     A,R2
        ADD     A,#0x21
        MOV     DPL,A
        MOV     A,R3
        ADDC    A,#0x0
        MOV     DPH,A
        MOVX    A,@DPTR
        MOV     R0,A
        INC     DPTR
        MOVX    A,@DPTR
        MOV     R1,A
        MOV     DPL,R0
        MOV     DPH,R1
        MOVX    A,@DPTR
        XRL     A,#0x4f
        JNZ     ??CrossCallReturnLabel_6
        INC     DPTR
        MOVX    A,@DPTR
        XRL     A,#0x50
        JNZ     ??CrossCallReturnLabel_6
        MOV     DPL,R0
        MOV     DPH,R1
        INC     DPTR
        INC     DPTR
        MOVX    A,@DPTR
        XRL     A,#0x45
        JNZ     ??CrossCallReturnLabel_6
        MOV     DPL,R0
        MOV     DPH,R1
        INC     DPTR
        INC     DPTR
        INC     DPTR
        MOVX    A,@DPTR
        XRL     A,#0x4e
        JNZ     ??CrossCallReturnLabel_6
//  254          {
//  255             BEEP_ON;
        ORL     0xff,#0x1
        CLR     0xa0.0
//  256             osal_start_timerEx(My_TaskID, BEEP_OFF_EVT_ID, 1000 );
        ; Setup parameters for call to function osal_start_timerEx
        MOV     R4,#-0x18
        MOV     R5,#0x3
        MOV     R2,#0x2
        LCALL   ??Subroutine3_0 & 0xFFFF
        CFI EndBlock cfiBlock5
//  257          }
//  258 
//  259          break;
//  260     default:  break;    
//  261     }
//  262 }
??CrossCallReturnLabel_6:
        REQUIRE ?Subroutine0
        REQUIRE P2DIR
        REQUIRE _A_P2
        ; // Fall through to label ?Subroutine0

        RSEG BANKED_CODE:CODE:NOROOT(0)
?Subroutine0:
        CFI Block cfiBlock6 Using cfiCommon0
        CFI NoFunction
        CFI CFA_SP SP+0
        CFI CFA_XSP16 add(XSP16, 10)
        CFI VB load(1, XDATA, add(CFA_XSP16, literal(-9)))
        CFI DPL0 load(1, XDATA, add(CFA_XSP16, literal(-2)))
        CFI DPH0 load(1, XDATA, add(CFA_XSP16, literal(-1)))
        CFI R6 load(1, XDATA, add(CFA_XSP16, literal(-10)))
        CFI R7 load(1, XDATA, add(CFA_XSP16, literal(-6)))
        CFI V0 load(1, XDATA, add(CFA_XSP16, literal(-8)))
        CFI V1 load(1, XDATA, add(CFA_XSP16, literal(-7)))
        CFI ?BRET_EXT load(1, XDATA, add(CFA_XSP16, literal(-3)))
        CFI ?RET_HIGH load(1, XDATA, add(CFA_XSP16, literal(-4)))
        CFI ?RET_LOW load(1, XDATA, add(CFA_XSP16, literal(-5)))
        MOV     R7,#0x2
        LJMP    ?BANKED_LEAVE_XDATA
        CFI EndBlock cfiBlock6

        RSEG BANKED_CODE:CODE:NOROOT(0)
?Subroutine1:
        CFI Block cfiCond7 Using cfiCommon0
        CFI NoFunction
        CFI Conditional ??CrossCallReturnLabel_2
        CFI R6 load(1, XDATA, add(CFA_XSP16, literal(-12)))
        CFI VB load(1, XDATA, add(CFA_XSP16, literal(-11)))
        CFI V0 load(1, XDATA, add(CFA_XSP16, literal(-10)))
        CFI V1 load(1, XDATA, add(CFA_XSP16, literal(-9)))
        CFI V2 load(1, XDATA, add(CFA_XSP16, literal(-8)))
        CFI V3 load(1, XDATA, add(CFA_XSP16, literal(-7)))
        CFI R7 load(1, XDATA, add(CFA_XSP16, literal(-6)))
        CFI ?RET_LOW load(1, XDATA, add(CFA_XSP16, literal(-5)))
        CFI ?RET_HIGH load(1, XDATA, add(CFA_XSP16, literal(-4)))
        CFI ?BRET_EXT load(1, XDATA, add(CFA_XSP16, literal(-3)))
        CFI DPL0 load(1, XDATA, add(CFA_XSP16, literal(-2)))
        CFI DPH0 load(1, XDATA, add(CFA_XSP16, literal(-1)))
        CFI CFA_SP SP+0
        CFI CFA_XSP16 add(XSP16, 12)
        CFI Block cfiCond8 Using cfiCommon0
        CFI (cfiCond8) NoFunction
        CFI (cfiCond8) Conditional ??CrossCallReturnLabel_3
        CFI (cfiCond8) R6 load(1, XDATA, add(CFA_XSP16, literal(-12)))
        CFI (cfiCond8) VB load(1, XDATA, add(CFA_XSP16, literal(-11)))
        CFI (cfiCond8) V0 load(1, XDATA, add(CFA_XSP16, literal(-10)))
        CFI (cfiCond8) V1 load(1, XDATA, add(CFA_XSP16, literal(-9)))
        CFI (cfiCond8) V2 load(1, XDATA, add(CFA_XSP16, literal(-8)))
        CFI (cfiCond8) V3 load(1, XDATA, add(CFA_XSP16, literal(-7)))
        CFI (cfiCond8) R7 load(1, XDATA, add(CFA_XSP16, literal(-6)))
        CFI (cfiCond8) ?RET_LOW load(1, XDATA, add(CFA_XSP16, literal(-5)))
        CFI (cfiCond8) ?RET_HIGH load(1, XDATA, add(CFA_XSP16, literal(-4)))
        CFI (cfiCond8) ?BRET_EXT load(1, XDATA, add(CFA_XSP16, literal(-3)))
        CFI (cfiCond8) DPL0 load(1, XDATA, add(CFA_XSP16, literal(-2)))
        CFI (cfiCond8) DPH0 load(1, XDATA, add(CFA_XSP16, literal(-1)))
        CFI (cfiCond8) CFA_SP SP+0
        CFI (cfiCond8) CFA_XSP16 add(XSP16, 12)
        CFI Block cfiPicker9 Using cfiCommon1
        CFI (cfiPicker9) NoFunction
        CFI (cfiPicker9) Picker
        MOV     R2,#0x1
        CFI EndBlock cfiCond7
        CFI EndBlock cfiCond8
        CFI EndBlock cfiPicker9
        REQUIRE ??Subroutine3_0
        ; // Fall through to label ??Subroutine3_0

        RSEG BANKED_CODE:CODE:NOROOT(0)
??Subroutine3_0:
        CFI Block cfiCond10 Using cfiCommon0
        CFI NoFunction
        CFI Conditional ??CrossCallReturnLabel_4
        CFI R6 load(1, XDATA, add(CFA_XSP16, literal(-12)))
        CFI VB load(1, XDATA, add(CFA_XSP16, literal(-11)))
        CFI V0 load(1, XDATA, add(CFA_XSP16, literal(-10)))
        CFI V1 load(1, XDATA, add(CFA_XSP16, literal(-9)))
        CFI V2 load(1, XDATA, add(CFA_XSP16, literal(-8)))
        CFI V3 load(1, XDATA, add(CFA_XSP16, literal(-7)))
        CFI R7 load(1, XDATA, add(CFA_XSP16, literal(-6)))
        CFI ?RET_LOW load(1, XDATA, add(CFA_XSP16, literal(-5)))
        CFI ?RET_HIGH load(1, XDATA, add(CFA_XSP16, literal(-4)))
        CFI ?BRET_EXT load(1, XDATA, add(CFA_XSP16, literal(-3)))
        CFI DPL0 load(1, XDATA, add(CFA_XSP16, literal(-2)))
        CFI DPH0 load(1, XDATA, add(CFA_XSP16, literal(-1)))
        CFI CFA_SP SP+0
        CFI CFA_XSP16 add(XSP16, 12)
        CFI Block cfiCond11 Using cfiCommon0
        CFI (cfiCond11) NoFunction
        CFI (cfiCond11) Conditional ??CrossCallReturnLabel_5
        CFI (cfiCond11) R6 load(1, XDATA, add(CFA_XSP16, literal(-12)))
        CFI (cfiCond11) VB load(1, XDATA, add(CFA_XSP16, literal(-11)))
        CFI (cfiCond11) V0 load(1, XDATA, add(CFA_XSP16, literal(-10)))
        CFI (cfiCond11) V1 load(1, XDATA, add(CFA_XSP16, literal(-9)))
        CFI (cfiCond11) V2 load(1, XDATA, add(CFA_XSP16, literal(-8)))
        CFI (cfiCond11) V3 load(1, XDATA, add(CFA_XSP16, literal(-7)))
        CFI (cfiCond11) R7 load(1, XDATA, add(CFA_XSP16, literal(-6)))
        CFI (cfiCond11) ?RET_LOW load(1, XDATA, add(CFA_XSP16, literal(-5)))
        CFI (cfiCond11) ?RET_HIGH load(1, XDATA, add(CFA_XSP16, literal(-4)))
        CFI (cfiCond11) ?BRET_EXT load(1, XDATA, add(CFA_XSP16, literal(-3)))
        CFI (cfiCond11) DPL0 load(1, XDATA, add(CFA_XSP16, literal(-2)))
        CFI (cfiCond11) DPH0 load(1, XDATA, add(CFA_XSP16, literal(-1)))
        CFI (cfiCond11) CFA_SP SP+0
        CFI (cfiCond11) CFA_XSP16 add(XSP16, 12)
        CFI Block cfiCond12 Using cfiCommon0
        CFI (cfiCond12) NoFunction
        CFI (cfiCond12) Conditional ??CrossCallReturnLabel_6
        CFI (cfiCond12) R6 load(1, XDATA, add(CFA_XSP16, literal(-10)))
        CFI (cfiCond12) VB load(1, XDATA, add(CFA_XSP16, literal(-9)))
        CFI (cfiCond12) V0 load(1, XDATA, add(CFA_XSP16, literal(-8)))
        CFI (cfiCond12) V1 load(1, XDATA, add(CFA_XSP16, literal(-7)))
        CFI (cfiCond12) R7 load(1, XDATA, add(CFA_XSP16, literal(-6)))
        CFI (cfiCond12) ?RET_LOW load(1, XDATA, add(CFA_XSP16, literal(-5)))
        CFI (cfiCond12) ?RET_HIGH load(1, XDATA, add(CFA_XSP16, literal(-4)))
        CFI (cfiCond12) ?BRET_EXT load(1, XDATA, add(CFA_XSP16, literal(-3)))
        CFI (cfiCond12) DPL0 load(1, XDATA, add(CFA_XSP16, literal(-2)))
        CFI (cfiCond12) DPH0 load(1, XDATA, add(CFA_XSP16, literal(-1)))
        CFI (cfiCond12) CFA_SP SP+0
        CFI (cfiCond12) CFA_XSP16 add(XSP16, 10)
        CFI Block cfiCond13 Using cfiCommon0
        CFI (cfiCond13) NoFunction
        CFI (cfiCond13) Conditional ??CrossCallReturnLabel_2
        CFI (cfiCond13) R6 load(1, XDATA, add(CFA_XSP16, literal(-12)))
        CFI (cfiCond13) VB load(1, XDATA, add(CFA_XSP16, literal(-11)))
        CFI (cfiCond13) V0 load(1, XDATA, add(CFA_XSP16, literal(-10)))
        CFI (cfiCond13) V1 load(1, XDATA, add(CFA_XSP16, literal(-9)))
        CFI (cfiCond13) V2 load(1, XDATA, add(CFA_XSP16, literal(-8)))
        CFI (cfiCond13) V3 load(1, XDATA, add(CFA_XSP16, literal(-7)))
        CFI (cfiCond13) R7 load(1, XDATA, add(CFA_XSP16, literal(-6)))
        CFI (cfiCond13) ?RET_LOW load(1, XDATA, add(CFA_XSP16, literal(-5)))
        CFI (cfiCond13) ?RET_HIGH load(1, XDATA, add(CFA_XSP16, literal(-4)))
        CFI (cfiCond13) ?BRET_EXT load(1, XDATA, add(CFA_XSP16, literal(-3)))
        CFI (cfiCond13) DPL0 load(1, XDATA, add(CFA_XSP16, literal(-2)))
        CFI (cfiCond13) DPH0 load(1, XDATA, add(CFA_XSP16, literal(-1)))
        CFI (cfiCond13) CFA_SP SP+0
        CFI (cfiCond13) CFA_XSP16 add(XSP16, 12)
        CFI Block cfiCond14 Using cfiCommon0
        CFI (cfiCond14) NoFunction
        CFI (cfiCond14) Conditional ??CrossCallReturnLabel_3
        CFI (cfiCond14) R6 load(1, XDATA, add(CFA_XSP16, literal(-12)))
        CFI (cfiCond14) VB load(1, XDATA, add(CFA_XSP16, literal(-11)))
        CFI (cfiCond14) V0 load(1, XDATA, add(CFA_XSP16, literal(-10)))
        CFI (cfiCond14) V1 load(1, XDATA, add(CFA_XSP16, literal(-9)))
        CFI (cfiCond14) V2 load(1, XDATA, add(CFA_XSP16, literal(-8)))
        CFI (cfiCond14) V3 load(1, XDATA, add(CFA_XSP16, literal(-7)))
        CFI (cfiCond14) R7 load(1, XDATA, add(CFA_XSP16, literal(-6)))
        CFI (cfiCond14) ?RET_LOW load(1, XDATA, add(CFA_XSP16, literal(-5)))
        CFI (cfiCond14) ?RET_HIGH load(1, XDATA, add(CFA_XSP16, literal(-4)))
        CFI (cfiCond14) ?BRET_EXT load(1, XDATA, add(CFA_XSP16, literal(-3)))
        CFI (cfiCond14) DPL0 load(1, XDATA, add(CFA_XSP16, literal(-2)))
        CFI (cfiCond14) DPH0 load(1, XDATA, add(CFA_XSP16, literal(-1)))
        CFI (cfiCond14) CFA_SP SP+0
        CFI (cfiCond14) CFA_XSP16 add(XSP16, 12)
        CFI Block cfiPicker15 Using cfiCommon1
        CFI (cfiPicker15) NoFunction
        CFI (cfiPicker15) Picker
        MOV     R3,#0x0
        MOV     DPTR,#My_TaskID
        MOVX    A,@DPTR
        MOV     R1,A
        LCALL   ??osal_start_timerEx?relay
        RET
        CFI EndBlock cfiCond10
        CFI EndBlock cfiCond11
        CFI EndBlock cfiCond12
        CFI EndBlock cfiCond13
        CFI EndBlock cfiCond14
        CFI EndBlock cfiPicker15
//  263 

        RSEG BANKED_CODE:CODE:NOROOT(0)
//  264 void Send_Message(void)
Send_Message:
        CFI Block cfiBlock16 Using cfiCommon0
        CFI Function Send_Message
        CODE
//  265 {
        FUNCALL Send_Message, osal_strlen
        LOCFRAME ISTACK, 0, STACK
        LOCFRAME PSTACK, 0, STACK
        LOCFRAME XSTACK, 15, STACK
        LOCFRAME IOVERLAY, 0, STATIC
        LOCFRAME DOVERLAY, 0, STATIC
        ARGFRAME ISTACK, 0, STACK
        ARGFRAME PSTACK, 0, STACK
        ARGFRAME XSTACK, 15, STACK
        ARGFRAME IOVERLAY, 0, STATIC
        ARGFRAME DOVERLAY, 0, STATIC
        FUNCALL Send_Message, AF_DataRequest
        LOCFRAME ISTACK, 0, STACK
        LOCFRAME PSTACK, 0, STACK
        LOCFRAME XSTACK, 19, STACK
        LOCFRAME IOVERLAY, 0, STATIC
        LOCFRAME DOVERLAY, 0, STATIC
        ARGFRAME ISTACK, 0, STACK
        ARGFRAME PSTACK, 0, STACK
        ARGFRAME XSTACK, 19, STACK
        ARGFRAME IOVERLAY, 0, STATIC
        ARGFRAME DOVERLAY, 0, STATIC
        MOV     A,#-0xa
        LCALL   ?BANKED_ENTER_XDATA
        CFI DPH0 load(1, XDATA, add(CFA_XSP16, literal(-1)))
        CFI DPL0 load(1, XDATA, add(CFA_XSP16, literal(-2)))
        CFI ?BRET_EXT load(1, XDATA, add(CFA_XSP16, literal(-3)))
        CFI ?RET_HIGH load(1, XDATA, add(CFA_XSP16, literal(-4)))
        CFI ?RET_LOW load(1, XDATA, add(CFA_XSP16, literal(-5)))
        CFI R7 load(1, XDATA, add(CFA_XSP16, literal(-6)))
        CFI V1 load(1, XDATA, add(CFA_XSP16, literal(-7)))
        CFI V0 load(1, XDATA, add(CFA_XSP16, literal(-8)))
        CFI VB load(1, XDATA, add(CFA_XSP16, literal(-9)))
        CFI R6 load(1, XDATA, add(CFA_XSP16, literal(-10)))
        CFI CFA_SP SP+0
        CFI CFA_XSP16 add(XSP16, 10)
        ; Saved register size: 10
        ; Auto size: 0
//  266     AF_DataRequest( &Single_DstAddr,                //发送地址模式
//  267                     &My_EndPoint_Desc,              //端点描述符
//  268                     CLUSTER_1_ID,                   //簇ID
//  269                     (byte)osal_strlen(tmp_msg)+1,   //发送长度
//  270                     (byte *)tmp_msg,                //发送内容
//  271                     & TransID,                      //帧序号
//  272                     AF_DISCV_ROUTE,                 //发现路由
//  273                     AF_DEFAULT_RADIUS);             //路由半径（默认16级）
        ; Setup parameters for call to function AF_DataRequest
        MOV     ?V0 + 0,#0x1e
        MOV     R0,#?V0 + 0
        LCALL   ?PUSH_XSTACK_I_ONE
        CFI CFA_XSP16 add(XSP16, 11)
        MOV     ?V0 + 0,#TransID & 0xff
        MOV     ?V0 + 1,#(TransID >> 8) & 0xff
        MOV     R0,#?V0 + 0
        LCALL   ?PUSH_XSTACK_I_TWO
        CFI CFA_XSP16 add(XSP16, 13)
        MOV     ?V0 + 0,#tmp_msg & 0xff
        MOV     ?V0 + 1,#(tmp_msg >> 8) & 0xff
        MOV     R0,#?V0 + 0
        LCALL   ?PUSH_XSTACK_I_TWO
        CFI CFA_XSP16 add(XSP16, 15)
        ; Setup parameters for call to function osal_strlen
        MOV     R2,#tmp_msg & 0xff
        MOV     R3,#(tmp_msg >> 8) & 0xff
        LCALL   ??osal_strlen?relay
        MOV     A,R2
        ADD     A,#0x1
        MOV     ?V0 + 0,A
        CLR     A
        ADDC    A,#0x0
        MOV     ?V0 + 1,A
        MOV     R0,#?V0 + 0
        LCALL   ?PUSH_XSTACK_I_TWO
        CFI CFA_XSP16 add(XSP16, 17)
        MOV     ?V0 + 0,#0x3
        MOV     ?V0 + 1,#0x0
        MOV     R0,#?V0 + 0
        LCALL   ?PUSH_XSTACK_I_TWO
        CFI CFA_XSP16 add(XSP16, 19)
        MOV     R1,#0x20
        MOV     R4,#My_EndPoint_Desc & 0xff
        MOV     R5,#(My_EndPoint_Desc >> 8) & 0xff
        MOV     R2,#Single_DstAddr & 0xff
        MOV     R3,#(Single_DstAddr >> 8) & 0xff
        LCALL   ??AF_DataRequest?relay
        MOV     A,#0x9
        LCALL   ?DEALLOC_XSTACK8
        CFI CFA_XSP16 add(XSP16, 10)
//  274 }
        SJMP    ?Subroutine0
        CFI EndBlock cfiBlock16

        RSEG XDATA_ID:CODE:NOROOT(0)
`?<Initializer for NwkState>`:
        DATA8
        DB 1

        RSEG BANK_RELAYS:CODE:REORDER:NOROOT(0)
??My_Task_Init?relay:
        LCALL   ?BDISPATCH
        DATA
        DC24    My_Task_Init

        RSEG BANK_RELAYS:CODE:REORDER:NOROOT(0)
??My_Task_Process_Event?relay:
        LCALL   ?BDISPATCH
        DATA
        DC24    My_Task_Process_Event

        RSEG BANK_RELAYS:CODE:REORDER:NOROOT(0)
??My_Task_Process_MSG?relay:
        LCALL   ?BDISPATCH
        DATA
        DC24    My_Task_Process_MSG

        RSEG BANK_RELAYS:CODE:REORDER:NOROOT(0)
??Send_Message?relay:
        LCALL   ?BDISPATCH
        DATA
        DC24    Send_Message

        END
//  275 
//  276 
//  277 
//  278 
//  279 
//  280 
// 
// 619 bytes in segment BANKED_CODE
//  24 bytes in segment BANK_RELAYS
//   2 bytes in segment SFR_AN
//   1 byte  in segment XDATA_I
//   1 byte  in segment XDATA_ID
//  20 bytes in segment XDATA_ROM_C
//  55 bytes in segment XDATA_Z
// 
// 644 bytes of CODE  memory
//  20 bytes of CONST memory
//   0 bytes of DATA  memory (+ 2 bytes shared)
//  56 bytes of XDATA memory
//
//Errors: none
//Warnings: 1
