///////////////////////////////////////////////////////////////////////////////
//                                                                            /
// IAR C/C++ Compiler V8.10.3.10338/W32 for 8051        19/Jun/2019  14:08:50 /
// Copyright 2004-2011 IAR Systems AB.                                        /
//                                                                            /
//    Core               =  plain                                             /
//    Code model         =  banked                                            /
//    Data model         =  large                                             /
//    Calling convention =  xdata reentrant                                   /
//    Constant location  =  data_rom                                          /
//    Dptr setup         =  1,16                                              /
//    Source file        =  C:\Users\fangxi1998\Desktop\øŒ≥Ã…Ëº∆\zigbee       /
//                          «∂»Î Ωlinux\zigbee◊Ó÷’\1\Zigbee-TempFireHumi\Texa /
//                          s Instruments\Projects\zstack\Samples\MyfirstAPP\ /
//                          Source\fire.c                                     /
//    Command line       =  -f "C:\Users\fangxi1998\Desktop\øŒ≥Ã…Ëº∆\zigbee   /
//                          «∂»Î Ωlinux\zigbee◊Ó÷’\1\Zigbee-TempFireHumi\Texa /
//                          s Instruments\Projects\zstack\Samples\MyfirstAPP\ /
//                          CC2530DB\..\..\..\Tools\CC2530DB\f8wCoord.cfg"    /
//                          (-DCPU32MHZ -DROOT=__near_func                    /
//                          -DMAC_CFG_APP_PENDING_QUEUE=TRUE                  /
//                          -DZDO_COORDINATOR -DRTR_NWK -DBLINK_LEDS) -f      /
//                          "C:\Users\fangxi1998\Desktop\øŒ≥Ã…Ëº∆\zigbee      /
//                          «∂»Î Ωlinux\zigbee◊Ó÷’\1\Zigbee-TempFireHumi\Texa /
//                          s Instruments\Projects\zstack\Samples\MyfirstAPP\ /
//                          CC2530DB\..\..\..\Tools\CC2530DB\f8wConfig.cfg"   /
//                          (-DSECURE=0 -DZG_SECURE_DYNAMIC=0 -DREFLECTOR     /
//                          -DDEFAULT_CHANLIST=0x04000000                     /
//                          -DZDAPP_CONFIG_PAN_ID=0xA1B2                      /
//                          -DNWK_START_DELAY=100 -DEXTENDED_JOINING_RANDOM_M /
//                          ASK=0x007F -DBEACON_REQUEST_DELAY=100             /
//                          -DBEACON_REQ_DELAY_MASK=0x00FF                    /
//                          -DROUTE_EXPIRY_TIME=30 -DAPSC_ACK_WAIT_DURATION_P /
//                          OLLED=3000 -DNWK_INDIRECT_MSG_TIMEOUT=7           /
//                          -DMAX_RREQ_ENTRIES=8 -DAPSC_MAX_FRAME_RETRIES=3   /
//                          -DNWK_MAX_DATA_RETRIES=2                          /
//                          -DMAX_POLL_FAILURE_RETRIES=2 -DMAX_BCAST=9        /
//                          -DAPS_MAX_GROUPS=16 -DMAX_RTG_ENTRIES=40          /
//                          -DNWK_MAX_BINDING_ENTRIES=4                       /
//                          -DMAX_BINDING_CLUSTER_IDS=4                       /
//                          "-DDEFAULT_KEY={0x01, 0x03, 0x05, 0x07, 0x09,     /
//                          0x0B, 0x0D, 0x0F, 0x00, 0x02, 0x04, 0x06, 0x08,   /
//                          0x0A, 0x0C, 0x0D}" -DMAC_MAX_FRAME_SIZE=116       /
//                          "-DCONST=const __code" -DGENERIC=__generic        /
//                          -DRFD_RCVC_ALWAYS_ON=FALSE -DPOLL_RATE=1000       /
//                          -DQUEUED_POLL_RATE=100 -DRESPONSE_POLL_RATE=100)  /
//                          -DREJOIN_POLL_RATE=440 "C:\Users\fangxi1998\Deskt /
//                          op\øŒ≥Ã…Ëº∆\zigbee «∂»Î Ωlinux\zigbee◊Ó÷’\1\Zigbe /
//                          e-TempFireHumi\Texas Instruments\Projects\zstack\ /
//                          Samples\MyfirstAPP\Source\fire.c" -D ZIGBEEPRO    /
//                          -D ZTOOL_P1 -D MT_TASK -D MT_SYS_FUNC -D          /
//                          MT_ZDO_FUNC -D LCD_SUPPORTED=DEBUG -D             /
//                          DH_AD_KEY_DEVICE -lC "C:\Users\fangxi1998\Desktop /
//                          \øŒ≥Ã…Ëº∆\zigbee «∂»Î Ωlinux\zigbee◊Ó÷’\1\Zigbee- /
//                          TempFireHumi\Texas Instruments\Projects\zstack\Sa /
//                          mples\MyfirstAPP\CC2530DB\CoordinatorEB-Pro\List\ /
//                          " -lA "C:\Users\fangxi1998\Desktop\øŒ≥Ã…Ëº∆\zigbe /
//                          e «∂»Î Ωlinux\zigbee◊Ó÷’\1\Zigbee-TempFireHumi\Te /
//                          xas Instruments\Projects\zstack\Samples\MyfirstAP /
//                          P\CC2530DB\CoordinatorEB-Pro\List\"               /
//                          --diag_suppress Pe001,Pa010 -o                    /
//                          "C:\Users\fangxi1998\Desktop\øŒ≥Ã…Ëº∆\zigbee      /
//                          «∂»Î Ωlinux\zigbee◊Ó÷’\1\Zigbee-TempFireHumi\Texa /
//                          s Instruments\Projects\zstack\Samples\MyfirstAPP\ /
//                          CC2530DB\CoordinatorEB-Pro\Obj\" -e --debug       /
//                          --core=plain --dptr=16,1 --data_model=large       /
//                          --code_model=banked --calling_convention=xdata_re /
//                          entrant --place_constants=data_rom                /
//                          --nr_virtual_regs 8 -I "C:\Users\fangxi1998\Deskt /
//                          op\øŒ≥Ã…Ëº∆\zigbee «∂»Î Ωlinux\zigbee◊Ó÷’\1\Zigbe /
//                          e-TempFireHumi\Texas Instruments\Projects\zstack\ /
//                          Samples\MyfirstAPP\CC2530DB\" -I                  /
//                          "C:\Users\fangxi1998\Desktop\øŒ≥Ã…Ëº∆\zigbee      /
//                          «∂»Î Ωlinux\zigbee◊Ó÷’\1\Zigbee-TempFireHumi\Texa /
//                          s Instruments\Projects\zstack\Samples\MyfirstAPP\ /
//                          CC2530DB\..\SOURCE\" -I                           /
//                          "C:\Users\fangxi1998\Desktop\øŒ≥Ã…Ëº∆\zigbee      /
//                          «∂»Î Ωlinux\zigbee◊Ó÷’\1\Zigbee-TempFireHumi\Texa /
//                          s Instruments\Projects\zstack\Samples\MyfirstAPP\ /
//                          CC2530DB\..\..\..\ZMAIN\TI2530DB\" -I             /
//                          "C:\Users\fangxi1998\Desktop\øŒ≥Ã…Ëº∆\zigbee      /
//                          «∂»Î Ωlinux\zigbee◊Ó÷’\1\Zigbee-TempFireHumi\Texa /
//                          s Instruments\Projects\zstack\Samples\MyfirstAPP\ /
//                          CC2530DB\..\..\..\..\..\COMPONENTS\MT\" -I        /
//                          "C:\Users\fangxi1998\Desktop\øŒ≥Ã…Ëº∆\zigbee      /
//                          «∂»Î Ωlinux\zigbee◊Ó÷’\1\Zigbee-TempFireHumi\Texa /
//                          s Instruments\Projects\zstack\Samples\MyfirstAPP\ /
//                          CC2530DB\..\..\..\..\..\COMPONENTS\HAL\INCLUDE\"  /
//                          -I "C:\Users\fangxi1998\Desktop\øŒ≥Ã…Ëº∆\zigbee   /
//                          «∂»Î Ωlinux\zigbee◊Ó÷’\1\Zigbee-TempFireHumi\Texa /
//                          s Instruments\Projects\zstack\Samples\MyfirstAPP\ /
//                          CC2530DB\..\..\..\..\..\COMPONENTS\HAL\TARGET\CC2 /
//                          530EB\" -I "C:\Users\fangxi1998\Desktop\øŒ≥Ã…Ëº∆\ /
//                          zigbee «∂»Î Ωlinux\zigbee◊Ó÷’\1\Zigbee-TempFireHu /
//                          mi\Texas Instruments\Projects\zstack\Samples\Myfi /
//                          rstAPP\CC2530DB\..\..\..\..\..\COMPONENTS\OSAL\MC /
//                          U\CCSOC\" -I "C:\Users\fangxi1998\Desktop\øŒ≥Ã…Ëº /
//                          ∆\zigbee «∂»Î Ωlinux\zigbee◊Ó÷’\1\Zigbee-TempFire /
//                          Humi\Texas Instruments\Projects\zstack\Samples\My /
//                          firstAPP\CC2530DB\..\..\..\..\..\COMPONENTS\OSAL\ /
//                          INCLUDE\" -I "C:\Users\fangxi1998\Desktop\øŒ≥Ã…Ëº /
//                          ∆\zigbee «∂»Î Ωlinux\zigbee◊Ó÷’\1\Zigbee-TempFire /
//                          Humi\Texas Instruments\Projects\zstack\Samples\My /
//                          firstAPP\CC2530DB\..\..\..\..\..\COMPONENTS\STACK /
//                          \AF\" -I "C:\Users\fangxi1998\Desktop\øŒ≥Ã…Ëº∆\zi /
//                          gbee «∂»Î Ωlinux\zigbee◊Ó÷’\1\Zigbee-TempFireHumi /
//                          \Texas Instruments\Projects\zstack\Samples\Myfirs /
//                          tAPP\CC2530DB\..\..\..\..\..\COMPONENTS\STACK\NWK /
//                          \" -I "C:\Users\fangxi1998\Desktop\øŒ≥Ã…Ëº∆\zigbe /
//                          e «∂»Î Ωlinux\zigbee◊Ó÷’\1\Zigbee-TempFireHumi\Te /
//                          xas Instruments\Projects\zstack\Samples\MyfirstAP /
//                          P\CC2530DB\..\..\..\..\..\COMPONENTS\STACK\SEC\"  /
//                          -I "C:\Users\fangxi1998\Desktop\øŒ≥Ã…Ëº∆\zigbee   /
//                          «∂»Î Ωlinux\zigbee◊Ó÷’\1\Zigbee-TempFireHumi\Texa /
//                          s Instruments\Projects\zstack\Samples\MyfirstAPP\ /
//                          CC2530DB\..\..\..\..\..\COMPONENTS\STACK\SAPI\"   /
//                          -I "C:\Users\fangxi1998\Desktop\øŒ≥Ã…Ëº∆\zigbee   /
//                          «∂»Î Ωlinux\zigbee◊Ó÷’\1\Zigbee-TempFireHumi\Texa /
//                          s Instruments\Projects\zstack\Samples\MyfirstAPP\ /
//                          CC2530DB\..\..\..\..\..\COMPONENTS\STACK\SYS\"    /
//                          -I "C:\Users\fangxi1998\Desktop\øŒ≥Ã…Ëº∆\zigbee   /
//                          «∂»Î Ωlinux\zigbee◊Ó÷’\1\Zigbee-TempFireHumi\Texa /
//                          s Instruments\Projects\zstack\Samples\MyfirstAPP\ /
//                          CC2530DB\..\..\..\..\..\COMPONENTS\STACK\ZDO\"    /
//                          -I "C:\Users\fangxi1998\Desktop\øŒ≥Ã…Ëº∆\zigbee   /
//                          «∂»Î Ωlinux\zigbee◊Ó÷’\1\Zigbee-TempFireHumi\Texa /
//                          s Instruments\Projects\zstack\Samples\MyfirstAPP\ /
//                          CC2530DB\..\..\..\..\..\COMPONENTS\ZMAC\F8W\" -I  /
//                          "C:\Users\fangxi1998\Desktop\øŒ≥Ã…Ëº∆\zigbee      /
//                          «∂»Î Ωlinux\zigbee◊Ó÷’\1\Zigbee-TempFireHumi\Texa /
//                          s Instruments\Projects\zstack\Samples\MyfirstAPP\ /
//                          CC2530DB\..\..\..\..\..\COMPONENTS\ZMAC\" -I      /
//                          "C:\Users\fangxi1998\Desktop\øŒ≥Ã…Ëº∆\zigbee      /
//                          «∂»Î Ωlinux\zigbee◊Ó÷’\1\Zigbee-TempFireHumi\Texa /
//                          s Instruments\Projects\zstack\Samples\MyfirstAPP\ /
//                          CC2530DB\..\..\..\..\..\COMPONENTS\SERVICES\SADDR /
//                          \" -I "C:\Users\fangxi1998\Desktop\øŒ≥Ã…Ëº∆\zigbe /
//                          e «∂»Î Ωlinux\zigbee◊Ó÷’\1\Zigbee-TempFireHumi\Te /
//                          xas Instruments\Projects\zstack\Samples\MyfirstAP /
//                          P\CC2530DB\..\..\..\..\..\COMPONENTS\SERVICES\SDA /
//                          TA\" -I "C:\Users\fangxi1998\Desktop\øŒ≥Ã…Ëº∆\zig /
//                          bee «∂»Î Ωlinux\zigbee◊Ó÷’\1\Zigbee-TempFireHumi\ /
//                          Texas Instruments\Projects\zstack\Samples\Myfirst /
//                          APP\CC2530DB\..\..\..\..\..\COMPONENTS\MAC\INCLUD /
//                          E\" -I "C:\Users\fangxi1998\Desktop\øŒ≥Ã…Ëº∆\zigb /
//                          ee «∂»Î Ωlinux\zigbee◊Ó÷’\1\Zigbee-TempFireHumi\T /
//                          exas Instruments\Projects\zstack\Samples\MyfirstA /
//                          PP\CC2530DB\..\..\..\..\..\COMPONENTS\MAC\HIGH_LE /
//                          VEL\" -I "C:\Users\fangxi1998\Desktop\øŒ≥Ã…Ëº∆\zi /
//                          gbee «∂»Î Ωlinux\zigbee◊Ó÷’\1\Zigbee-TempFireHumi /
//                          \Texas Instruments\Projects\zstack\Samples\Myfirs /
//                          tAPP\CC2530DB\..\..\..\..\..\COMPONENTS\MAC\LOW_L /
//                          EVEL\srf04\" -I "C:\Users\fangxi1998\Desktop\øŒ≥Ã /
//                          …Ëº∆\zigbee «∂»Î Ωlinux\zigbee◊Ó÷’\1\Zigbee-TempF /
//                          ireHumi\Texas Instruments\Projects\zstack\Samples /
//                          \MyfirstAPP\CC2530DB\..\..\..\..\..\COMPONENTS\MA /
//                          C\LOW_LEVEL\srf04\SINGLE_CHIP\" -Ohz              /
//                          --require_prototypes                              /
//    List file          =  C:\Users\fangxi1998\Desktop\øŒ≥Ã…Ëº∆\zigbee       /
//                          «∂»Î Ωlinux\zigbee◊Ó÷’\1\Zigbee-TempFireHumi\Texa /
//                          s Instruments\Projects\zstack\Samples\MyfirstAPP\ /
//                          CC2530DB\CoordinatorEB-Pro\List\fire.s51          /
//                                                                            /
//                                                                            /
///////////////////////////////////////////////////////////////////////////////

        NAME fire

        RTMODEL "__SystemLibrary", "CLib"
        RTMODEL "__calling_convention", "xdata_reentrant"
        RTMODEL "__code_model", "banked"
        RTMODEL "__core", "plain"
        RTMODEL "__data_model", "large"
        RTMODEL "__dptr_size", "16"
        RTMODEL "__extended_stack", "disabled"
        RTMODEL "__location_for_constants", "data"
        RTMODEL "__number_of_dptrs", "1"
        RTMODEL "__rt_version", "1"

        RSEG DOVERLAY:DATA:NOROOT(0)
        RSEG IOVERLAY:IDATA:NOROOT(0)
        RSEG ISTACK:IDATA:NOROOT(0)
        RSEG PSTACK:XDATA:NOROOT(0)
        RSEG XSTACK:XDATA:NOROOT(0)

        EXTERN ?BDISPATCH
        EXTERN ?BRET
        EXTERN __INIT_XDATA_Z

        PUBLIC ??getfire?relay
        FUNCTION ??getfire?relay,0203H
        PUBLIC ??io_init?relay
        FUNCTION ??io_init?relay,0203H
        PUBWEAK P1DIR
        PUBWEAK P1SEL
        PUBWEAK _A_P1
        PUBLIC _a
        PUBLIC `a`
        PUBLIC `b`
        PUBLIC fire
        PUBLIC getfire
        FUNCTION getfire,0203H
        ARGFRAME XSTACK, 0, STACK
        LOCFRAME ISTACK, 2, STACK
        PUBLIC io_init
        FUNCTION io_init,0203H
        ARGFRAME XSTACK, 0, STACK
        
        CFI Names cfiNames0
        CFI StackFrame CFA_SP SP IDATA
        CFI StackFrame CFA_PSP16 PSP16 XDATA
        CFI StackFrame CFA_XSP16 XSP16 XDATA
        CFI StaticOverlayFrame CFA_IOVERLAY IOVERLAY
        CFI StaticOverlayFrame CFA_DOVERLAY DOVERLAY
        CFI Resource `PSW.CY`:1, `B.BR0`:1, `B.BR1`:1, `B.BR2`:1, `B.BR3`:1
        CFI Resource `B.BR4`:1, `B.BR5`:1, `B.BR6`:1, `B.BR7`:1, `VB.BR8`:1
        CFI Resource `VB.BR9`:1, `VB.BR10`:1, `VB.BR11`:1, `VB.BR12`:1
        CFI Resource `VB.BR13`:1, `VB.BR14`:1, `VB.BR15`:1, VB:8, B:8, A:8
        CFI Resource PSW:8, DPL0:8, DPH0:8, R0:8, R1:8, R2:8, R3:8, R4:8, R5:8
        CFI Resource R6:8, R7:8, V0:8, V1:8, V2:8, V3:8, V4:8, V5:8, V6:8, V7:8
        CFI Resource SP:8, PSPH:8, PSPL:8, PSP16:16, XSPH:8, XSPL:8, XSP16:16
        CFI VirtualResource ?RET:24
        CFI Resource ?BRET_EXT:8
        CFI VirtualResource ?RET_HIGH:8, ?RET_LOW:8
        CFI ResourceParts PSP16 PSPH, PSPL
        CFI ResourceParts XSP16 XSPH, XSPL
        CFI ResourceParts ?RET ?BRET_EXT, ?RET_HIGH, ?RET_LOW
        CFI EndNames cfiNames0
        
        CFI Common cfiCommon0 Using cfiNames0
        CFI CodeAlign 1
        CFI DataAlign -1
        CFI ReturnAddress ?RET CODE
        CFI CFA_DOVERLAY Used
        CFI CFA_IOVERLAY Used
        CFI CFA_SP SP+-3
        CFI CFA_PSP16 PSP16+0
        CFI CFA_XSP16 XSP16+0
        CFI `PSW.CY` SameValue
        CFI `B.BR0` SameValue
        CFI `B.BR1` SameValue
        CFI `B.BR2` SameValue
        CFI `B.BR3` SameValue
        CFI `B.BR4` SameValue
        CFI `B.BR5` SameValue
        CFI `B.BR6` SameValue
        CFI `B.BR7` SameValue
        CFI `VB.BR8` SameValue
        CFI `VB.BR9` SameValue
        CFI `VB.BR10` SameValue
        CFI `VB.BR11` SameValue
        CFI `VB.BR12` SameValue
        CFI `VB.BR13` SameValue
        CFI `VB.BR14` SameValue
        CFI `VB.BR15` SameValue
        CFI VB SameValue
        CFI B Undefined
        CFI A Undefined
        CFI PSW SameValue
        CFI DPL0 SameValue
        CFI DPH0 SameValue
        CFI R0 Undefined
        CFI R1 Undefined
        CFI R2 Undefined
        CFI R3 Undefined
        CFI R4 Undefined
        CFI R5 Undefined
        CFI R6 SameValue
        CFI R7 SameValue
        CFI V0 SameValue
        CFI V1 SameValue
        CFI V2 SameValue
        CFI V3 SameValue
        CFI V4 SameValue
        CFI V5 SameValue
        CFI V6 SameValue
        CFI V7 SameValue
        CFI PSPH Undefined
        CFI PSPL Undefined
        CFI XSPH Undefined
        CFI XSPL Undefined
        CFI ?RET Concat
        CFI ?BRET_EXT Frame(CFA_SP, 3)
        CFI ?RET_HIGH Frame(CFA_SP, 2)
        CFI ?RET_LOW Frame(CFA_SP, 1)
        CFI EndCommon cfiCommon0
        
getfire             SYMBOL "getfire"
??getfire?relay     SYMBOL "?relay", getfire
io_init             SYMBOL "io_init"
??io_init?relay     SYMBOL "?relay", io_init

// C:\Users\fangxi1998\Desktop\øŒ≥Ã…Ëº∆\zigbee «∂»Î Ωlinux\zigbee◊Ó÷’\1\Zigbee-TempFireHumi\Texas Instruments\Projects\zstack\Samples\MyfirstAPP\Source\fire.c
//    1 #include <ioCC2530.h>

        ASEGN SFR_AN:DATA:NOROOT,090H
// union <unnamed> volatile __sfr _A_P1
_A_P1:
        DATA8
        DS 1

        ASEGN SFR_AN:DATA:NOROOT,0f4H
// unsigned char volatile __sfr P1SEL
P1SEL:
        DATA8
        DS 1

        ASEGN SFR_AN:DATA:NOROOT,0feH
// unsigned char volatile __sfr P1DIR
P1DIR:
        DATA8
        DS 1
//    2 #include "fire.h"
//    3 #include "hal_types.h"
//    4 #define uint unsigned int
//    5 #define uchar unsigned char
//    6 
//    7 #define led1 P1_0
//    8 #define led2 P1_1
//    9 #define led3 P1_2
//   10 #define led4 P1_3
//   11 

        RSEG XDATA_Z:XDATA:NOROOT(0)
        DATA8
//   12 uint8 fire = 0;
fire:
        DS 1
        REQUIRE __INIT_XDATA_Z

        RSEG XDATA_Z:XDATA:NOROOT(0)
        DATA8
//   13 uchar a,b;
`a`:
        DS 1
        REQUIRE __INIT_XDATA_Z

        RSEG XDATA_Z:XDATA:NOROOT(0)
        DATA8
`b`:
        DS 1
        REQUIRE __INIT_XDATA_Z

        RSEG XDATA_Z:XDATA:NOROOT(0)
        DATA8
//   14 unsigned char _a[3];
_a:
        DS 3
        REQUIRE __INIT_XDATA_Z
//   15 
//   16 //ioº∞Õ‚≤ø÷–∂œ≥ı ºªØ

        RSEG BANKED_CODE:CODE:NOROOT(0)
//   17 void io_init(void)
io_init:
        CFI Block cfiBlock0 Using cfiCommon0
        CFI Function io_init
        CODE
//   18 {
        ; Saved register size: 0
        ; Auto size: 0
//   19   //1.4 1.5 Œ™ ‰»Î
//   20   P1DIR &= ~((1 << 4)|(1 << 5));  //  (0x00010000 | 0x00100000)=> 0x00110000  ~=> 0x11001111   //…ËŒ™ ‰»Î
        ANL     0xfe,#0xcf
//   21   P1SEL &= ~((1 << 4)|(1 << 5));
        ANL     0xf4,#0xcf
//   22   
//   23 }
        LJMP    ?BRET
        CFI EndBlock cfiBlock0
        REQUIRE P1DIR
        REQUIRE P1SEL

        RSEG BANKED_CODE:CODE:NOROOT(0)
//   24 void getfire(void)   
getfire:
        CFI Block cfiBlock1 Using cfiCommon0
        CFI Function getfire
        CODE
//   25 {
        PUSH    DPL
        CFI DPL0 Frame(CFA_SP, 4)
        CFI CFA_SP SP+-4
        PUSH    DPH
        CFI DPH0 Frame(CFA_SP, 5)
        CFI CFA_SP SP+-5
        ; Saved register size: 2
        ; Auto size: 0
//   26     a=P1;
        MOV     A,0x90
        MOV     DPTR,#`a`
        MOVX    @DPTR,A
//   27     //»Ù4 5 ø⁄Œ™1
//   28     b=(~a&0x30);   // 0x00110000 & 0x00110000  = 0x00110000
        CPL     A
        ANL     A,#0x30
        MOV     DPTR,#`b`
        MOVX    @DPTR,A
//   29     if(b)  
        MOV     DPTR,#_a
        JZ      ??getfire_0
//   30       _a[0]='1'; //”–ª—Ê
        MOV     A,#0x31
        SJMP    ??getfire_1
//   31     else 
//   32       _a[0]='0'; //Œﬁª—Ê
??getfire_0:
        MOV     A,#0x30
??getfire_1:
        MOVX    @DPTR,A
//   33  }
        POP     DPH
        CFI DPH0 SameValue
        CFI CFA_SP SP+-4
        POP     DPL
        CFI DPL0 SameValue
        CFI CFA_SP SP+-3
        LJMP    ?BRET
        CFI EndBlock cfiBlock1
        REQUIRE _A_P1

        RSEG BANK_RELAYS:CODE:REORDER:NOROOT(0)
??io_init?relay:
        LCALL   ?BDISPATCH
        DATA
        DC24    io_init

        RSEG BANK_RELAYS:CODE:REORDER:NOROOT(0)
??getfire?relay:
        LCALL   ?BDISPATCH
        DATA
        DC24    getfire

        END
// 
// 45 bytes in segment BANKED_CODE
// 12 bytes in segment BANK_RELAYS
//  3 bytes in segment SFR_AN
//  6 bytes in segment XDATA_Z
// 
// 57 bytes of CODE  memory
//  0 bytes of DATA  memory (+ 3 bytes shared)
//  6 bytes of XDATA memory
//
//Errors: none
//Warnings: none
