###############################################################################
#                                                                             #
# IAR C/C++ Compiler V8.10.3.10338/W32 for 8051         19/Jun/2019  14:08:29 #
# Copyright 2004-2011 IAR Systems AB.                                         #
#                                                                             #
#    Core               =  plain                                              #
#    Code model         =  banked                                             #
#    Data model         =  large                                              #
#    Calling convention =  xdata reentrant                                    #
#    Constant location  =  data_rom                                           #
#    Dptr setup         =  1,16                                               #
#    Source file        =  C:\Users\fangxi1998\Desktop\课程设计\zigbee        #
#                          嵌入式linux\zigbee最终\1\Zigbee-TempFireHumi\Texas #
#                           Instruments\Components\hal\target\CC2530EB\hal_ke #
#                          y.c                                                #
#    Command line       =  -f "C:\Users\fangxi1998\Desktop\课程设计\zigbee    #
#                          嵌入式linux\zigbee最终\1\Zigbee-TempFireHumi\Texas #
#                           Instruments\Projects\zstack\Samples\MyfirstAPP\CC #
#                          2530DB\..\..\..\Tools\CC2530DB\f8wCoord.cfg"       #
#                          (-DCPU32MHZ -DROOT=__near_func                     #
#                          -DMAC_CFG_APP_PENDING_QUEUE=TRUE                   #
#                          -DZDO_COORDINATOR -DRTR_NWK -DBLINK_LEDS) -f       #
#                          "C:\Users\fangxi1998\Desktop\课程设计\zigbee       #
#                          嵌入式linux\zigbee最终\1\Zigbee-TempFireHumi\Texas #
#                           Instruments\Projects\zstack\Samples\MyfirstAPP\CC #
#                          2530DB\..\..\..\Tools\CC2530DB\f8wConfig.cfg"      #
#                          (-DSECURE=0 -DZG_SECURE_DYNAMIC=0 -DREFLECTOR      #
#                          -DDEFAULT_CHANLIST=0x04000000                      #
#                          -DZDAPP_CONFIG_PAN_ID=0xA1B2                       #
#                          -DNWK_START_DELAY=100 -DEXTENDED_JOINING_RANDOM_MA #
#                          SK=0x007F -DBEACON_REQUEST_DELAY=100               #
#                          -DBEACON_REQ_DELAY_MASK=0x00FF                     #
#                          -DROUTE_EXPIRY_TIME=30 -DAPSC_ACK_WAIT_DURATION_PO #
#                          LLED=3000 -DNWK_INDIRECT_MSG_TIMEOUT=7             #
#                          -DMAX_RREQ_ENTRIES=8 -DAPSC_MAX_FRAME_RETRIES=3    #
#                          -DNWK_MAX_DATA_RETRIES=2                           #
#                          -DMAX_POLL_FAILURE_RETRIES=2 -DMAX_BCAST=9         #
#                          -DAPS_MAX_GROUPS=16 -DMAX_RTG_ENTRIES=40           #
#                          -DNWK_MAX_BINDING_ENTRIES=4                        #
#                          -DMAX_BINDING_CLUSTER_IDS=4 "-DDEFAULT_KEY={0x01,  #
#                          0x03, 0x05, 0x07, 0x09, 0x0B, 0x0D, 0x0F, 0x00,    #
#                          0x02, 0x04, 0x06, 0x08, 0x0A, 0x0C, 0x0D}"         #
#                          -DMAC_MAX_FRAME_SIZE=116 "-DCONST=const __code"    #
#                          -DGENERIC=__generic -DRFD_RCVC_ALWAYS_ON=FALSE     #
#                          -DPOLL_RATE=1000 -DQUEUED_POLL_RATE=100            #
#                          -DRESPONSE_POLL_RATE=100) -DREJOIN_POLL_RATE=440   #
#                          "C:\Users\fangxi1998\Desktop\课程设计\zigbee       #
#                          嵌入式linux\zigbee最终\1\Zigbee-TempFireHumi\Texas #
#                           Instruments\Components\hal\target\CC2530EB\hal_ke #
#                          y.c" -D ZIGBEEPRO -D ZTOOL_P1 -D MT_TASK -D        #
#                          MT_SYS_FUNC -D MT_ZDO_FUNC -D LCD_SUPPORTED=DEBUG  #
#                          -D DH_AD_KEY_DEVICE -lC "C:\Users\fangxi1998\Deskt #
#                          op\课程设计\zigbee 嵌入式linux\zigbee最终\1\Zigbee #
#                          -TempFireHumi\Texas Instruments\Projects\zstack\Sa #
#                          mples\MyfirstAPP\CC2530DB\CoordinatorEB-Pro\List\" #
#                           -lA "C:\Users\fangxi1998\Desktop\课程设计\zigbee  #
#                          嵌入式linux\zigbee最终\1\Zigbee-TempFireHumi\Texas #
#                           Instruments\Projects\zstack\Samples\MyfirstAPP\CC #
#                          2530DB\CoordinatorEB-Pro\List\" --diag_suppress    #
#                          Pe001,Pa010 -o "C:\Users\fangxi1998\Desktop\课程设 #
#                          计\zigbee 嵌入式linux\zigbee最终\1\Zigbee-TempFire #
#                          Humi\Texas Instruments\Projects\zstack\Samples\Myf #
#                          irstAPP\CC2530DB\CoordinatorEB-Pro\Obj\" -e        #
#                          --debug --core=plain --dptr=16,1                   #
#                          --data_model=large --code_model=banked             #
#                          --calling_convention=xdata_reentrant               #
#                          --place_constants=data_rom --nr_virtual_regs 8 -I  #
#                          "C:\Users\fangxi1998\Desktop\课程设计\zigbee       #
#                          嵌入式linux\zigbee最终\1\Zigbee-TempFireHumi\Texas #
#                           Instruments\Projects\zstack\Samples\MyfirstAPP\CC #
#                          2530DB\" -I "C:\Users\fangxi1998\Desktop\课程设计\ #
#                          zigbee 嵌入式linux\zigbee最终\1\Zigbee-TempFireHum #
#                          i\Texas Instruments\Projects\zstack\Samples\Myfirs #
#                          tAPP\CC2530DB\..\SOURCE\" -I                       #
#                          "C:\Users\fangxi1998\Desktop\课程设计\zigbee       #
#                          嵌入式linux\zigbee最终\1\Zigbee-TempFireHumi\Texas #
#                           Instruments\Projects\zstack\Samples\MyfirstAPP\CC #
#                          2530DB\..\..\..\ZMAIN\TI2530DB\" -I                #
#                          "C:\Users\fangxi1998\Desktop\课程设计\zigbee       #
#                          嵌入式linux\zigbee最终\1\Zigbee-TempFireHumi\Texas #
#                           Instruments\Projects\zstack\Samples\MyfirstAPP\CC #
#                          2530DB\..\..\..\..\..\COMPONENTS\MT\" -I           #
#                          "C:\Users\fangxi1998\Desktop\课程设计\zigbee       #
#                          嵌入式linux\zigbee最终\1\Zigbee-TempFireHumi\Texas #
#                           Instruments\Projects\zstack\Samples\MyfirstAPP\CC #
#                          2530DB\..\..\..\..\..\COMPONENTS\HAL\INCLUDE\" -I  #
#                          "C:\Users\fangxi1998\Desktop\课程设计\zigbee       #
#                          嵌入式linux\zigbee最终\1\Zigbee-TempFireHumi\Texas #
#                           Instruments\Projects\zstack\Samples\MyfirstAPP\CC #
#                          2530DB\..\..\..\..\..\COMPONENTS\HAL\TARGET\CC2530 #
#                          EB\" -I "C:\Users\fangxi1998\Desktop\课程设计\zigb #
#                          ee 嵌入式linux\zigbee最终\1\Zigbee-TempFireHumi\Te #
#                          xas Instruments\Projects\zstack\Samples\MyfirstAPP #
#                          \CC2530DB\..\..\..\..\..\COMPONENTS\OSAL\MCU\CCSOC #
#                          \" -I "C:\Users\fangxi1998\Desktop\课程设计\zigbee #
#                           嵌入式linux\zigbee最终\1\Zigbee-TempFireHumi\Texa #
#                          s Instruments\Projects\zstack\Samples\MyfirstAPP\C #
#                          C2530DB\..\..\..\..\..\COMPONENTS\OSAL\INCLUDE\"   #
#                          -I "C:\Users\fangxi1998\Desktop\课程设计\zigbee    #
#                          嵌入式linux\zigbee最终\1\Zigbee-TempFireHumi\Texas #
#                           Instruments\Projects\zstack\Samples\MyfirstAPP\CC #
#                          2530DB\..\..\..\..\..\COMPONENTS\STACK\AF\" -I     #
#                          "C:\Users\fangxi1998\Desktop\课程设计\zigbee       #
#                          嵌入式linux\zigbee最终\1\Zigbee-TempFireHumi\Texas #
#                           Instruments\Projects\zstack\Samples\MyfirstAPP\CC #
#                          2530DB\..\..\..\..\..\COMPONENTS\STACK\NWK\" -I    #
#                          "C:\Users\fangxi1998\Desktop\课程设计\zigbee       #
#                          嵌入式linux\zigbee最终\1\Zigbee-TempFireHumi\Texas #
#                           Instruments\Projects\zstack\Samples\MyfirstAPP\CC #
#                          2530DB\..\..\..\..\..\COMPONENTS\STACK\SEC\" -I    #
#                          "C:\Users\fangxi1998\Desktop\课程设计\zigbee       #
#                          嵌入式linux\zigbee最终\1\Zigbee-TempFireHumi\Texas #
#                           Instruments\Projects\zstack\Samples\MyfirstAPP\CC #
#                          2530DB\..\..\..\..\..\COMPONENTS\STACK\SAPI\" -I   #
#                          "C:\Users\fangxi1998\Desktop\课程设计\zigbee       #
#                          嵌入式linux\zigbee最终\1\Zigbee-TempFireHumi\Texas #
#                           Instruments\Projects\zstack\Samples\MyfirstAPP\CC #
#                          2530DB\..\..\..\..\..\COMPONENTS\STACK\SYS\" -I    #
#                          "C:\Users\fangxi1998\Desktop\课程设计\zigbee       #
#                          嵌入式linux\zigbee最终\1\Zigbee-TempFireHumi\Texas #
#                           Instruments\Projects\zstack\Samples\MyfirstAPP\CC #
#                          2530DB\..\..\..\..\..\COMPONENTS\STACK\ZDO\" -I    #
#                          "C:\Users\fangxi1998\Desktop\课程设计\zigbee       #
#                          嵌入式linux\zigbee最终\1\Zigbee-TempFireHumi\Texas #
#                           Instruments\Projects\zstack\Samples\MyfirstAPP\CC #
#                          2530DB\..\..\..\..\..\COMPONENTS\ZMAC\F8W\" -I     #
#                          "C:\Users\fangxi1998\Desktop\课程设计\zigbee       #
#                          嵌入式linux\zigbee最终\1\Zigbee-TempFireHumi\Texas #
#                           Instruments\Projects\zstack\Samples\MyfirstAPP\CC #
#                          2530DB\..\..\..\..\..\COMPONENTS\ZMAC\" -I         #
#                          "C:\Users\fangxi1998\Desktop\课程设计\zigbee       #
#                          嵌入式linux\zigbee最终\1\Zigbee-TempFireHumi\Texas #
#                           Instruments\Projects\zstack\Samples\MyfirstAPP\CC #
#                          2530DB\..\..\..\..\..\COMPONENTS\SERVICES\SADDR\"  #
#                          -I "C:\Users\fangxi1998\Desktop\课程设计\zigbee    #
#                          嵌入式linux\zigbee最终\1\Zigbee-TempFireHumi\Texas #
#                           Instruments\Projects\zstack\Samples\MyfirstAPP\CC #
#                          2530DB\..\..\..\..\..\COMPONENTS\SERVICES\SDATA\"  #
#                          -I "C:\Users\fangxi1998\Desktop\课程设计\zigbee    #
#                          嵌入式linux\zigbee最终\1\Zigbee-TempFireHumi\Texas #
#                           Instruments\Projects\zstack\Samples\MyfirstAPP\CC #
#                          2530DB\..\..\..\..\..\COMPONENTS\MAC\INCLUDE\" -I  #
#                          "C:\Users\fangxi1998\Desktop\课程设计\zigbee       #
#                          嵌入式linux\zigbee最终\1\Zigbee-TempFireHumi\Texas #
#                           Instruments\Projects\zstack\Samples\MyfirstAPP\CC #
#                          2530DB\..\..\..\..\..\COMPONENTS\MAC\HIGH_LEVEL\"  #
#                          -I "C:\Users\fangxi1998\Desktop\课程设计\zigbee    #
#                          嵌入式linux\zigbee最终\1\Zigbee-TempFireHumi\Texas #
#                           Instruments\Projects\zstack\Samples\MyfirstAPP\CC #
#                          2530DB\..\..\..\..\..\COMPONENTS\MAC\LOW_LEVEL\srf #
#                          04\" -I "C:\Users\fangxi1998\Desktop\课程设计\zigb #
#                          ee 嵌入式linux\zigbee最终\1\Zigbee-TempFireHumi\Te #
#                          xas Instruments\Projects\zstack\Samples\MyfirstAPP #
#                          \CC2530DB\..\..\..\..\..\COMPONENTS\MAC\LOW_LEVEL\ #
#                          srf04\SINGLE_CHIP\" -Ohz --require_prototypes      #
#    List file          =  C:\Users\fangxi1998\Desktop\课程设计\zigbee        #
#                          嵌入式linux\zigbee最终\1\Zigbee-TempFireHumi\Texas #
#                           Instruments\Projects\zstack\Samples\MyfirstAPP\CC #
#                          2530DB\CoordinatorEB-Pro\List\hal_key.lst          #
#    Object file        =  C:\Users\fangxi1998\Desktop\课程设计\zigbee        #
#                          嵌入式linux\zigbee最终\1\Zigbee-TempFireHumi\Texas #
#                           Instruments\Projects\zstack\Samples\MyfirstAPP\CC #
#                          2530DB\CoordinatorEB-Pro\Obj\hal_key.r51           #
#                                                                             #
#                                                                             #
###############################################################################

C:\Users\fangxi1998\Desktop\课程设计\zigbee 嵌入式linux\zigbee最终\1\Zigbee-TempFireHumi\Texas Instruments\Components\hal\target\CC2530EB\hal_key.c
      1          /**************************************************************************************************
      2            Filename:       hal_key.c
      3            Revised:        $Date: 2008-12-15 07:19:03 -0800 (Mon, 15 Dec 2008) $
      4            Revision:       $Revision: 18611 $
      5          
      6            Description:    This file contains the interface to the HAL KEY Service.
      7          
      8          
      9            Copyright 2006-2007 Texas Instruments Incorporated. All rights reserved.
     10          
     11            IMPORTANT: Your use of this Software is limited to those specific rights
     12            granted under the terms of a software license agreement between the user
     13            who downloaded the software, his/her employer (which must be your employer)
     14            and Texas Instruments Incorporated (the "License").  You may not use this
     15            Software unless you agree to abide by the terms of the License. The License
     16            limits your use, and you acknowledge, that the Software may not be modified,
     17            copied or distributed unless embedded on a Texas Instruments microcontroller
     18            or used solely and exclusively in conjunction with a Texas Instruments radio
     19            frequency transceiver, which is integrated into your product.  Other than for
     20            the foregoing purpose, you may not use, reproduce, copy, prepare derivative
     21            works of, modify, distribute, perform, display or sell this Software and/or
     22            its documentation for any purpose.
     23          
     24            YOU FURTHER ACKNOWLEDGE AND AGREE THAT THE SOFTWARE AND DOCUMENTATION ARE
     25            PROVIDED AS IS?WITHOUT WARRANTY OF ANY KIND, EITHER EXPRESS OR IMPLIED,
     26            INCLUDING WITHOUT LIMITATION, ANY WARRANTY OF MERCHANTABILITY, TITLE,
     27            NON-INFRINGEMENT AND FITNESS FOR A PARTICULAR PURPOSE. IN NO EVENT SHALL
     28            TEXAS INSTRUMENTS OR ITS LICENSORS BE LIABLE OR OBLIGATED UNDER CONTRACT,
     29            NEGLIGENCE, STRICT LIABILITY, CONTRIBUTION, BREACH OF WARRANTY, OR OTHER
     30            LEGAL EQUITABLE THEORY ANY DIRECT OR INDIRECT DAMAGES OR EXPENSES
     31            INCLUDING BUT NOT LIMITED TO ANY INCIDENTAL, SPECIAL, INDIRECT, PUNITIVE
     32            OR CONSEQUENTIAL DAMAGES, LOST PROFITS OR LOST DATA, COST OF PROCUREMENT
     33            OF SUBSTITUTE GOODS, TECHNOLOGY, SERVICES, OR ANY CLAIMS BY THIRD PARTIES
     34            (INCLUDING BUT NOT LIMITED TO ANY DEFENSE THEREOF), OR OTHER SIMILAR COSTS.
     35          
     36            Should you have any questions regarding your right to use this Software,
     37            contact Texas Instruments Incorporated at www.TI.com.
     38          **************************************************************************************************/
     39          /*********************************************************************
     40           NOTE: If polling is used, the hal_driver task schedules the KeyRead()
     41                 to occur every 100ms.  This should be long enough to naturally
     42                 debounce the keys.  The KeyRead() function remembers the key
     43                 state of the previous poll and will only return a non-zero
     44                 value if the key state changes.
     45          
     46           NOTE: If interrupts are used, the KeyRead() function is scheduled
     47                 25ms after the interrupt occurs by the ISR.  This delay is used
     48                 for key debouncing.  The ISR disables any further Key interrupt
     49                 until KeyRead() is executed.  KeyRead() will re-enable Key
     50                 interrupts after executing.  Unlike polling, when interrupts
     51                 are enabled, the previous key state is not remembered.  This
     52                 means that KeyRead() will return the current state of the keys
     53                 (not a change in state of the keys).
     54          
     55           NOTE: If interrupts are used, the KeyRead() fucntion is scheduled by
     56                 the ISR.  Therefore, the joystick movements will only be detected
     57                 during a pushbutton interrupt caused by S1 or the center joystick
     58                 pushbutton.
     59          
     60           NOTE: When a switch like S1 is pushed, the S1 signal goes from a normally
     61                 high state to a low state.  This transition is typically clean.  The
     62                 duration of the low state is around 200ms.  When the signal returns
     63                 to the high state, there is a high likelihood of signal bounce, which
     64                 causes a unwanted interrupts.  Normally, we would set the interrupt
     65                 edge to falling edge to generate an interrupt when S1 is pushed, but
     66                 because of the signal bounce, it is better to set the edge to rising
     67                 edge to generate an interrupt when S1 is released.  The debounce logic
     68                 can then filter out the signal bounce.  The result is that we typically
     69                 get only 1 interrupt per button push.  This mechanism is not totally
     70                 foolproof because occasionally, signal bound occurs during the falling
     71                 edge as well.  A similar mechanism is used to handle the joystick
     72                 pushbutton on the DB.  For the EB, we do not have independent control
     73                 of the interrupt edge for the S1 and center joystick pushbutton.  As
     74                 a result, only one or the other pushbuttons work reasonably well with
     75                 interrupts.  The default is the make the S1 switch on the EB work more
     76                 reliably.
     77          
     78          *********************************************************************/
     79          
     80          /**************************************************************************************************
     81           *                                            INCLUDES
     82           **************************************************************************************************/
     83          #include "hal_mcu.h"

   \                                 In  segment SFR_AN, at 0x80
   \   union <unnamed> volatile __sfr _A_P0
   \                     _A_P0:
   \   000000                DS 1

   \                                 In  segment SFR_AN, at 0x89
   \   unsigned char volatile __sfr P0IFG
   \                     P0IFG:
   \   000000                DS 1

   \                                 In  segment SFR_AN, at 0x8b
   \   unsigned char volatile __sfr P2IFG
   \                     P2IFG:
   \   000000                DS 1

   \                                 In  segment SFR_AN, at 0x8c
   \   unsigned char volatile __sfr PICTL
   \                     PICTL:
   \   000000                DS 1

   \                                 In  segment SFR_AN, at 0xab
   \   unsigned char volatile __sfr P0IEN
   \                     P0IEN:
   \   000000                DS 1

   \                                 In  segment SFR_AN, at 0xb8
   \   union <unnamed> volatile __sfr _A_IEN1
   \                     _A_IEN1:
   \   000000                DS 1

   \                                 In  segment SFR_AN, at 0xc0
   \   union <unnamed> volatile __sfr _A_IRCON
   \                     _A_IRCON:
   \   000000                DS 1

   \                                 In  segment SFR_AN, at 0xe8
   \   union <unnamed> volatile __sfr _A_IRCON2
   \                     _A_IRCON2:
   \   000000                DS 1

   \                                 In  segment SFR_AN, at 0xf3
   \   unsigned char volatile __sfr P0SEL
   \                     P0SEL:
   \   000000                DS 1

   \                                 In  segment SFR_AN, at 0xfd
   \   unsigned char volatile __sfr P0DIR
   \                     P0DIR:
   \   000000                DS 1
     84          #include "hal_defs.h"
     85          #include "hal_types.h"
     86          #include "hal_drivers.h"
     87          #include "hal_adc.h"
     88          #include "hal_key.h"
     89          #include "osal.h"
     90          
     91          #if (defined HAL_KEY) && (HAL_KEY == TRUE)
     92          
     93          /**************************************************************************************************
     94           *                                              MACROS
     95           **************************************************************************************************/
     96          
     97          /**************************************************************************************************
     98           *                                            CONSTANTS
     99           **************************************************************************************************/
    100          #define HAL_KEY_RISING_EDGE   0
    101          #define HAL_KEY_FALLING_EDGE  1
    102          
    103          #define HAL_KEY_DEBOUNCE_VALUE  25
    104          #define HAL_KEY_POLLING_VALUE   100
    105          
    106          /* CPU port interrupt */
    107          #define HAL_KEY_CPU_PORT_0_IF P0IF
    108          #define HAL_KEY_CPU_PORT_2_IF P2IF
    109          
    110          /* SW_6 is at P0.5 */
    111          #define HAL_KEY_SW_6_PORT   P0
    112          #define HAL_KEY_SW_6_BIT    BV(5)
    113          #define HAL_KEY_SW_6_SEL    P0SEL
    114          #define HAL_KEY_SW_6_DIR    P0DIR
    115          
    116          /* edge interrupt */
    117          #define HAL_KEY_SW_6_EDGEBIT  BV(0) //P0ICON
    118          #define HAL_KEY_SW_6_EDGE     HAL_KEY_FALLING_EDGE
    119          
    120          
    121          /* SW_6 interrupts */
    122          #define HAL_KEY_SW_6_IEN      IEN1  /* CPU interrupt mask register */
    123          #define HAL_KEY_SW_6_IENBIT   BV(5) /* Mask bit for all of Port_0 */
    124          #define HAL_KEY_SW_6_ICTL     P0IEN /* Port Interrupt Control register */
    125          #define HAL_KEY_SW_6_ICTLBIT  BV(5) /* P0IEN - P0.1 enable/disable bit */
    126          #define HAL_KEY_SW_6_PXIFG    P0IFG /* Interrupt flag at source */
    127          
    128          #define HAL_KEY_SW_7_EN     TRUE
    129          
    130          /* SW_7 is at P0.4 */
    131          #define HAL_KEY_SW_7_PORT   P0
    132          #define HAL_KEY_SW_7_BIT    BV(4)
    133          #define HAL_KEY_SW_7_SEL    P0SEL
    134          #define HAL_KEY_SW_7_DIR    P0DIR
    135          
    136          /* edge interrupt */
    137          #define HAL_KEY_SW_7_EDGEBIT  BV(0) //P0ICON
    138          #define HAL_KEY_SW_7_EDGE     HAL_KEY_FALLING_EDGE
    139          
    140          
    141          /* SW_7 interrupts */
    142          #define HAL_KEY_SW_7_IEN      IEN1  /* CPU interrupt mask register */
    143          #define HAL_KEY_SW_7_IENBIT   BV(5) /* Mask bit for all of Port_0 */
    144          #define HAL_KEY_SW_7_ICTL     P0IEN /* Port Interrupt Control register */
    145          #define HAL_KEY_SW_7_ICTLBIT  BV(4) /* P0IEN - P0.1 enable/disable bit */
    146          #define HAL_KEY_SW_7_PXIFG    P0IFG /* Interrupt flag at source */
    147          
    148          
    149          
    150          /* Joy stick move at P2.0 */
    151          #define HAL_KEY_JOY_MOVE_PORT   P2
    152          #define HAL_KEY_JOY_MOVE_BIT    BV(0)
    153          #define HAL_KEY_JOY_MOVE_SEL    P2SEL
    154          #define HAL_KEY_JOY_MOVE_DIR    P2DIR
    155          
    156          /* edge interrupt */
    157          #define HAL_KEY_JOY_MOVE_EDGEBIT  BV(3)
    158          #define HAL_KEY_JOY_MOVE_EDGE     HAL_KEY_FALLING_EDGE
    159          
    160          /* Joy move interrupts */
    161          #define HAL_KEY_JOY_MOVE_IEN      IEN2  /* CPU interrupt mask register */
    162          #define HAL_KEY_JOY_MOVE_IENBIT   BV(1) /* Mask bit for all of Port_2 */
    163          #define HAL_KEY_JOY_MOVE_ICTL     P2IEN /* Port Interrupt Control register */
    164          #define HAL_KEY_JOY_MOVE_ICTLBIT  BV(0) /* P2IENL - P2.0<->P2.3 enable/disable bit */
    165          #define HAL_KEY_JOY_MOVE_PXIFG    P2IFG /* Interrupt flag at source */
    166          
    167          #define HAL_KEY_JOY_CHN   HAL_ADC_CHANNEL_6
    168          
    169          
    170          /**************************************************************************************************
    171           *                                            TYPEDEFS
    172           **************************************************************************************************/
    173          
    174          
    175          /**************************************************************************************************
    176           *                                        GLOBAL VARIABLES
    177           **************************************************************************************************/

   \                                 In  segment XDATA_Z, align 1, keep-with-next
    178          static uint8 halKeySavedKeys;     /* used to store previous key state in polling mode */
   \                     halKeySavedKeys:
   \   000000                DS 1
   \   000001                REQUIRE __INIT_XDATA_Z

   \                                 In  segment XDATA_Z, align 1, keep-with-next
    179          static halKeyCBack_t pHalKeyProcessFunction;
   \                     pHalKeyProcessFunction:
   \   000000                DS 2
   \   000002                REQUIRE __INIT_XDATA_Z

   \                                 In  segment XDATA_Z, align 1, keep-with-next
    180          static uint8 HalKeyConfigured;
   \                     HalKeyConfigured:
   \   000000                DS 1
   \   000001                REQUIRE __INIT_XDATA_Z

   \                                 In  segment XDATA_Z, align 1, keep-with-next
    181          bool Hal_KeyIntEnable;            /* interrupt enable/disable flag */
   \                     Hal_KeyIntEnable:
   \   000000                DS 1
   \   000001                REQUIRE __INIT_XDATA_Z
    182          
    183          /**************************************************************************************************
    184           *                                        FUNCTIONS - Local
    185           **************************************************************************************************/
    186          void halProcessKeyInterrupt(void);
    187          uint8 halGetJoyKeyInput(void);
    188          
    189          
    190          
    191          /**************************************************************************************************
    192           *                                        FUNCTIONS - API
    193           **************************************************************************************************/
    194          
    195          
    196          /**************************************************************************************************
    197           * @fn      HalKeyInit
    198           *
    199           * @brief   Initilize Key Service
    200           *
    201           * @param   none
    202           *
    203           * @return  None
    204           **************************************************************************************************/

   \                                 In  segment BANKED_CODE, align 1, keep-with-next
    205          void HalKeyInit( void )
   \                     HalKeyInit:
    206          {
   \   000000   C082         PUSH    DPL
   \   000002   C083         PUSH    DPH
   \   000004                ; Saved register size: 2
   \   000004                ; Auto size: 0
    207            /* Initialize previous key to 0 */
    208            halKeySavedKeys = 0;
   \   000004   90....       MOV     DPTR,#halKeySavedKeys
   \   000007   E4           CLR     A
   \   000008   F0           MOVX    @DPTR,A
    209          
    210            HAL_KEY_SW_6_SEL &= ~(HAL_KEY_SW_6_BIT);    /* Set pin function to GPIO */
   \   000009   53F3DF       ANL     0xf3,#0xdf
    211            HAL_KEY_SW_6_DIR &= ~(HAL_KEY_SW_6_BIT);    /* Set pin direction to Input */
   \   00000C   53FDDF       ANL     0xfd,#0xdf
    212            
    213            HAL_KEY_SW_7_SEL &= ~(HAL_KEY_SW_7_BIT);    /* Set pin function to GPIO */
   \   00000F   53F3EF       ANL     0xf3,#0xef
    214            HAL_KEY_SW_7_DIR &= ~(HAL_KEY_SW_7_BIT);    /* Set pin direction to Input */
   \   000012   53FDEF       ANL     0xfd,#0xef
    215          
    216           // HAL_KEY_JOY_MOVE_SEL &= ~(HAL_KEY_JOY_MOVE_BIT); /* Set pin function to GPIO */
    217          //  HAL_KEY_JOY_MOVE_DIR &= ~(HAL_KEY_JOY_MOVE_BIT); /* Set pin direction to Input */
    218          
    219          
    220            /* Initialize callback function */
    221            pHalKeyProcessFunction  = NULL;
   \   000015   90....       MOV     DPTR,#pHalKeyProcessFunction
   \   000018   F0           MOVX    @DPTR,A
   \   000019   A3           INC     DPTR
   \   00001A   F0           MOVX    @DPTR,A
    222          
    223            /* Start with key is not configured */
    224            HalKeyConfigured = FALSE;
   \   00001B   90....       MOV     DPTR,#HalKeyConfigured
   \   00001E   F0           MOVX    @DPTR,A
    225          }
   \   00001F                REQUIRE ?Subroutine0
   \   00001F                REQUIRE P0SEL
   \   00001F                REQUIRE P0DIR
   \   00001F                ; // Fall through to label ?Subroutine0

   \                                 In  segment BANKED_CODE, align 1, keep-with-next
   \                     ?Subroutine0:
   \   000000   D083         POP     DPH
   \   000002   D082         POP     DPL
   \   000004   02....       LJMP    ?BRET
    226          
    227          
    228          /**************************************************************************************************
    229           * @fn      HalKeyConfig
    230           *
    231           * @brief   Configure the Key serivce
    232           *
    233           * @param   interruptEnable - TRUE/FALSE, enable/disable interrupt
    234           *          cback - pointer to the CallBack function
    235           *
    236           * @return  None
    237           **************************************************************************************************/

   \                                 In  segment BANKED_CODE, align 1, keep-with-next
    238          void HalKeyConfig (bool interruptEnable, halKeyCBack_t cback)
   \                     HalKeyConfig:
    239          {
   \   000000   74F7         MOV     A,#-0x9
   \   000002   12....       LCALL   ?BANKED_ENTER_XDATA
   \   000005                ; Saved register size: 9
   \   000005                ; Auto size: 0
   \   000005   E9           MOV     A,R1
    240            /* Enable/Disable Interrupt or */
    241            Hal_KeyIntEnable = interruptEnable;
   \   000006   90....       MOV     DPTR,#Hal_KeyIntEnable
   \   000009   F0           MOVX    @DPTR,A
    242          
    243            /* Register the callback fucntion */
    244            pHalKeyProcessFunction = cback;
   \   00000A   90....       MOV     DPTR,#pHalKeyProcessFunction
   \   00000D   EA           MOV     A,R2
   \   00000E   F0           MOVX    @DPTR,A
   \   00000F   A3           INC     DPTR
   \   000010   EB           MOV     A,R3
   \   000011   F0           MOVX    @DPTR,A
    245          
    246            /* Determine if interrupt is enable or not */
    247            if (Hal_KeyIntEnable)
   \   000012   90....       MOV     DPTR,#Hal_KeyIntEnable
   \   000015   E0           MOVX    A,@DPTR
   \   000016   6032         JZ      ??HalKeyConfig_0
    248            {
    249              /* Rising/Falling edge configuratinn */
    250          
    251              PICTL &= ~(HAL_KEY_SW_6_EDGEBIT);    /* Clear the edge bit */
   \   000018   538CFE       ANL     0x8c,#0xfe
    252              /* For falling edge, the bit must be set. */
    253            #if (HAL_KEY_SW_6_EDGE == HAL_KEY_FALLING_EDGE)
    254              PICTL |= HAL_KEY_SW_6_EDGEBIT;
   \   00001B   438C01       ORL     0x8c,#0x1
    255            #endif
    256              PICTL &= ~(HAL_KEY_SW_7_EDGEBIT);    /* Clear the edge bit */
   \   00001E   538CFE       ANL     0x8c,#0xfe
    257              /* For falling edge, the bit must be set. */
    258            #if (HAL_KEY_SW_7_EDGE == HAL_KEY_FALLING_EDGE)
    259              PICTL |= HAL_KEY_SW_7_EDGEBIT;
   \   000021   438C01       ORL     0x8c,#0x1
    260            #endif
    261          
    262          
    263          
    264              /* Interrupt configuration:
    265               * - Enable interrupt generation at the port
    266               * - Enable CPU interrupt
    267               * - Clear any pending interrupt
    268               */
    269              HAL_KEY_SW_6_ICTL |= HAL_KEY_SW_6_ICTLBIT;
   \   000024   43AB20       ORL     0xab,#0x20
    270              HAL_KEY_SW_6_IEN |= HAL_KEY_SW_6_IENBIT;
   \   000027   D2BD         SETB    0xb8.5
    271              HAL_KEY_SW_6_PXIFG = ~(HAL_KEY_SW_6_BIT);
   \   000029   7589DF       MOV     0x89,#-0x21
    272          
    273              HAL_KEY_SW_7_ICTL |= HAL_KEY_SW_7_ICTLBIT;
   \   00002C   43AB10       ORL     0xab,#0x10
    274              HAL_KEY_SW_7_IEN |= HAL_KEY_SW_7_IENBIT;
   \   00002F   D2BD         SETB    0xb8.5
    275              HAL_KEY_SW_7_PXIFG = ~(HAL_KEY_SW_7_BIT);
   \   000031   7589EF       MOV     0x89,#-0x11
    276          
    277          
    278              /* Rising/Falling edge configuratinn */
    279          
    280            //  HAL_KEY_JOY_MOVE_ICTL &= ~(HAL_KEY_JOY_MOVE_EDGEBIT);    /* Clear the edge bit */
    281              /* For falling edge, the bit must be set. */
    282            #if (HAL_KEY_JOY_MOVE_EDGE == HAL_KEY_FALLING_EDGE)
    283            //  HAL_KEY_JOY_MOVE_ICTL |= HAL_KEY_JOY_MOVE_EDGEBIT;
    284            #endif
    285          
    286          
    287              /* Interrupt configuration:
    288               * - Enable interrupt generation at the port
    289               * - Enable CPU interrupt
    290               * - Clear any pending interrupt
    291               */
    292             // HAL_KEY_JOY_MOVE_ICTL |= HAL_KEY_JOY_MOVE_ICTLBIT;
    293            //  HAL_KEY_JOY_MOVE_IEN |= HAL_KEY_JOY_MOVE_IENBIT;
    294            //  HAL_KEY_JOY_MOVE_PXIFG = ~(HAL_KEY_JOY_MOVE_BIT);
    295          
    296          
    297              /* Do this only after the hal_key is configured - to work with sleep stuff */
    298              if (HalKeyConfigured == TRUE)
   \   000034   90....       MOV     DPTR,#HalKeyConfigured
   \   000037   E0           MOVX    A,@DPTR
   \   000038   6401         XRL     A,#0x1
   \   00003A   7028         JNZ     ??HalKeyConfig_1
    299              {
    300                osal_stop_timerEx( Hal_TaskID, HAL_KEY_EVENT);  /* Cancel polling if active */
   \   00003C                ; Setup parameters for call to function osal_stop_timerEx
   \   00003C   7A01         MOV     R2,#0x1
   \   00003E   7B00         MOV     R3,#0x0
   \   000040   90....       MOV     DPTR,#Hal_TaskID
   \   000043   E0           MOVX    A,@DPTR
   \   000044   F9           MOV     R1,A
   \   000045   12....       LCALL   ??osal_stop_timerEx?relay
   \   000048   801A         SJMP    ??HalKeyConfig_1
    301              }
    302            }
    303            else    /* Interrupts NOT enabled */
    304            {
    305              HAL_KEY_SW_6_ICTL &= ~(HAL_KEY_SW_6_ICTLBIT); /* don't generate interrupt   */
   \                     ??HalKeyConfig_0:
   \   00004A   53ABDF       ANL     0xab,#0xdf
    306              HAL_KEY_SW_6_IEN &= ~(HAL_KEY_SW_6_IENBIT);   /* Clear interrupt enable bit */
   \   00004D   C2BD         CLR     0xb8.5
    307              HAL_KEY_SW_7_ICTL &= ~(HAL_KEY_SW_7_ICTLBIT); /* don't generate interrupt   */
   \   00004F   53ABEF       ANL     0xab,#0xef
    308              HAL_KEY_SW_7_IEN &= ~(HAL_KEY_SW_7_IENBIT);   /* Clear interrupt enable bit */
   \   000052   C2BD         CLR     0xb8.5
    309          
    310              osal_start_timerEx (Hal_TaskID, HAL_KEY_EVENT, HAL_KEY_POLLING_VALUE);    /* Kick off polling */
   \   000054                ; Setup parameters for call to function osal_start_timerEx
   \   000054   7C64         MOV     R4,#0x64
   \   000056   7D00         MOV     R5,#0x0
   \   000058   7A01         MOV     R2,#0x1
   \   00005A   7B00         MOV     R3,#0x0
   \   00005C   90....       MOV     DPTR,#Hal_TaskID
   \   00005F   E0           MOVX    A,@DPTR
   \   000060   F9           MOV     R1,A
   \   000061   12....       LCALL   ??osal_start_timerEx?relay
    311            }
    312          
    313            /* Key now is configured */
    314            HalKeyConfigured = TRUE;
   \                     ??HalKeyConfig_1:
   \   000064   90....       MOV     DPTR,#HalKeyConfigured
   \   000067   7401         MOV     A,#0x1
   \   000069   F0           MOVX    @DPTR,A
    315          }
   \   00006A   FF           MOV     R7,A
   \   00006B   02....       LJMP    ?BANKED_LEAVE_XDATA
   \   00006E                REQUIRE PICTL
   \   00006E                REQUIRE P0IEN
   \   00006E                REQUIRE _A_IEN1
   \   00006E                REQUIRE P0IFG
    316          
    317          
    318          /**************************************************************************************************
    319           * @fn      HalKeyRead
    320           *
    321           * @brief   Read the current value of a key
    322           *
    323           * @param   None
    324           *
    325           * @return  keys - current keys status
    326           **************************************************************************************************/

   \                                 In  segment BANKED_CODE, align 1, keep-with-next
    327          uint8 HalKeyRead ( void )
   \                     HalKeyRead:
    328          {
   \   000000   74F7         MOV     A,#-0x9
   \   000002   12....       LCALL   ?BANKED_ENTER_XDATA
   \   000005                ; Saved register size: 9
   \   000005                ; Auto size: 0
    329            uint8 keys = 0;
   \   000005   7E00         MOV     R6,#0x0
    330          
    331          #ifdef HAL_BOARD_CC2530EB_REV17
    332            if ( (HAL_KEY_SW_6_PORT & HAL_KEY_SW_6_BIT))    /* Key is active high */
    333          #elif defined (HAL_BOARD_CC2530EB_REV13)
    334            if (!(HAL_KEY_SW_6_PORT & HAL_KEY_SW_6_BIT))    /* Key is active low */
   \   000007   A285         MOV     C,0x80.5
   \   000009   4002         JC      ??HalKeyRead_0
    335          #endif
    336            {
    337              keys |= HAL_KEY_SW_6;
   \   00000B   7E20         MOV     R6,#0x20
    338            }
    339          #ifdef HAL_BOARD_CC2530EB_REV17
    340            if ( (HAL_KEY_SW_7_PORT & HAL_KEY_SW_7_BIT))    /* Key is active high */
    341          #elif defined (HAL_BOARD_CC2530EB_REV13)
    342            if (!(HAL_KEY_SW_7_PORT & HAL_KEY_SW_7_BIT))    /* Key is active low */
   \                     ??HalKeyRead_0:
   \   00000D   A284         MOV     C,0x80.4
   \   00000F   4004         JC      ??HalKeyRead_1
    343          #endif
    344            {
    345              keys |= HAL_KEY_SW_7;
   \   000011   EE           MOV     A,R6
   \   000012   D2E6         SETB    0xE0 /* A   */.6
   \   000014   FE           MOV     R6,A
    346            }
    347          
    348          
    349           // if ((HAL_KEY_JOY_MOVE_PORT & HAL_KEY_JOY_MOVE_BIT))  /* Key is active low */
    350            {
    351              keys |= halGetJoyKeyInput();
    352            }
    353          
    354            return keys;
   \                     ??HalKeyRead_1:
   \   000015                ; Setup parameters for call to function halGetJoyKeyInput
   \   000015   12....       LCALL   ??halGetJoyKeyInput?relay
   \   000018   E9           MOV     A,R1
   \   000019   4E           ORL     A,R6
   \   00001A                REQUIRE ?Subroutine1
   \   00001A                REQUIRE _A_P0
   \   00001A                ; // Fall through to label ?Subroutine1
    355          }

   \                                 In  segment BANKED_CODE, align 1, keep-with-next
   \                     ?Subroutine1:
   \   000000   F9           MOV     R1,A
   \   000001                REQUIRE ??Subroutine3_0
   \   000001                ; // Fall through to label ??Subroutine3_0

   \                                 In  segment BANKED_CODE, align 1, keep-with-next
   \                     ??Subroutine3_0:
   \   000000   7F01         MOV     R7,#0x1
   \   000002   02....       LJMP    ?BANKED_LEAVE_XDATA
    356          
    357          
    358          /**************************************************************************************************
    359           * @fn      HalKeyPoll
    360           *
    361           * @brief   Called by hal_driver to poll the keys
    362           *
    363           * @param   None
    364           *
    365           * @return  None
    366           **************************************************************************************************/

   \                                 In  segment BANKED_CODE, align 1, keep-with-next
    367          void HalKeyPoll (void)
   \                     HalKeyPoll:
    368          {
   \   000000   74F7         MOV     A,#-0x9
   \   000002   12....       LCALL   ?BANKED_ENTER_XDATA
   \   000005                ; Saved register size: 9
   \   000005                ; Auto size: 0
    369            uint8 keys = 0;
   \   000005   75..00       MOV     ?V0 + 0,#0x0
    370          
    371            if (!(HAL_KEY_SW_6_PORT & HAL_KEY_SW_6_BIT))    /* Key is active low */
   \   000008   A285         MOV     C,0x80.5
   \   00000A   4003         JC      ??HalKeyPoll_0
    372            {
    373              keys |= HAL_KEY_SW_6;
   \   00000C   75..20       MOV     ?V0 + 0,#0x20
    374            }
    375            if (!(HAL_KEY_SW_7_PORT & HAL_KEY_SW_7_BIT))    /* Key is active low */
   \                     ??HalKeyPoll_0:
   \   00000F   A284         MOV     C,0x80.4
   \   000011   4006         JC      ??HalKeyPoll_1
    376            {
    377              keys |= HAL_KEY_SW_7;
   \   000013   E5..         MOV     A,?V0 + 0
   \   000015   D2E6         SETB    0xE0 /* A   */.6
   \   000017   F5..         MOV     ?V0 + 0,A
    378            }
    379          
    380           // if ((HAL_KEY_JOY_MOVE_PORT & HAL_KEY_JOY_MOVE_BIT))  /* Key is active HIGH */
    381            {
    382              keys |= halGetJoyKeyInput();
   \                     ??HalKeyPoll_1:
   \   000019                ; Setup parameters for call to function halGetJoyKeyInput
   \   000019   12....       LCALL   ??halGetJoyKeyInput?relay
   \   00001C   E9           MOV     A,R1
   \   00001D   42..         ORL     ?V0 + 0,A
    383            }
    384          
    385            /* If interrupts are not enabled, previous key status and current key status
    386             * are compared to find out if a key has changed status.
    387             */
    388            if (!Hal_KeyIntEnable)
   \   00001F   90....       MOV     DPTR,#Hal_KeyIntEnable
   \   000022   E0           MOVX    A,@DPTR
   \   000023   700B         JNZ     ??HalKeyPoll_2
    389            {
    390              if (keys == halKeySavedKeys)
   \   000025   90....       MOV     DPTR,#halKeySavedKeys
   \   000028   E0           MOVX    A,@DPTR
   \   000029   65..         XRL     A,?V0 + 0
   \   00002B   601F         JZ      ??HalKeyPoll_3
    391              {
    392                /* Exit - since no keys have changed */
    393                return;
    394              }
    395              /* Store the current keys for comparation next time */
    396              halKeySavedKeys = keys;
   \   00002D   E5..         MOV     A,?V0 + 0
   \   00002F   F0           MOVX    @DPTR,A
    397            }
    398            else
    399            {
    400              /* Key interrupt handled here */
    401            }
    402          
    403            /* Invoke Callback if new keys were depressed */
    404            if (keys && (pHalKeyProcessFunction))
   \                     ??HalKeyPoll_2:
   \   000030   E5..         MOV     A,?V0 + 0
   \   000032   6018         JZ      ??HalKeyPoll_3
   \   000034   90....       MOV     DPTR,#pHalKeyProcessFunction
   \   000037   E0           MOVX    A,@DPTR
   \   000038   F8           MOV     R0,A
   \   000039   A3           INC     DPTR
   \   00003A   E0           MOVX    A,@DPTR
   \   00003B   F9           MOV     R1,A
   \   00003C   E8           MOV     A,R0
   \   00003D   49           ORL     A,R1
   \   00003E   600C         JZ      ??HalKeyPoll_3
    405            {
    406              (pHalKeyProcessFunction) (keys, HAL_KEY_STATE_NORMAL);
   \   000040                ; Setup parameters for indirect call
   \   000040   7A00         MOV     R2,#0x0
   \   000042   A9..         MOV     R1,?V0 + 0
   \   000044   E0           MOVX    A,@DPTR
   \   000045   F583         MOV     DPH,A
   \   000047   8882         MOV     DPL,R0
   \   000049   12....       LCALL   ?CALL_IND
    407            }
   \                     ??HalKeyPoll_3:
   \   00004C   80..         SJMP    ??Subroutine3_0
   \   00004E                REQUIRE _A_P0
    408          }
    409          
    410          /**************************************************************************************************
    411           * @fn      halGetJoyKeyInput
    412           *
    413           * @brief   Map the ADC value to its corresponding key.
    414           *
    415           * @param   None
    416           *
    417           * @return  keys - current joy key status
    418           **************************************************************************************************/

   \                                 In  segment BANKED_CODE, align 1, keep-with-next
    419          uint8 halGetJoyKeyInput(void)
   \                     halGetJoyKeyInput:
    420          {
   \   000000   74F7         MOV     A,#-0x9
   \   000002   12....       LCALL   ?BANKED_ENTER_XDATA
   \   000005                ; Saved register size: 9
   \   000005                ; Auto size: 0
    421            /* The joystick control is encoded as an analog voltage.
    422             * Read the JOY_LEVEL analog value and map it to joy movement.
    423             */
    424            uint8 adc;
    425            uint8 ksave0 = 0;
   \   000005   7E00         MOV     R6,#0x0
    426            uint8 ksave1;
    427          
    428            /* Keep on reading the ADC until two consecutive key decisions are the same. */
    429           /* do
    430            {
    431              ksave1 = ksave0;    // save previouse key reading 
    432          
    433              adc = HalAdcRead (HAL_KEY_JOY_CHN, HAL_ADC_RESOLUTION_8);
    434          
    435              if ((adc >= 28) && (adc <= 38))
    436              {
    437                 ksave0 |= HAL_KEY_LEFT;//HAL_KEY_UP;
    438              }
    439              else if ((adc < 28))
    440              {
    441                ksave0 |= HAL_KEY_RIGHT;
    442              }
    443              else if ((adc >= 60) && (adc <= 73))
    444              {
    445                ksave0 |= HAL_KEY_DOWN;//HAL_KEY_LEFT;
    446              }
    447              else if ((adc >= 89) && (adc <= 100))
    448              {
    449                ksave0 |= HAL_KEY_UP;//HAL_KEY_CENTER;
    450              }
    451            } while (ksave0 != ksave1);*/
    452            
    453             do
    454            {
    455              ksave1 = ksave0;    /* save previouse key reading */
   \                     ??halGetJoyKeyInput_0:
   \   000007   EE           MOV     A,R6
   \   000008   FF           MOV     R7,A
    456          
    457              adc = HalAdcRead (HAL_KEY_JOY_CHN, HAL_ADC_RESOLUTION_8);
   \   000009                ; Setup parameters for call to function HalAdcRead
   \   000009   7A01         MOV     R2,#0x1
   \   00000B   7906         MOV     R1,#0x6
   \   00000D   12....       LCALL   ??HalAdcRead?relay
   \   000010   EA           MOV     A,R2
   \   000011   F8           MOV     R0,A
    458          
    459              if ((adc >= 28) && (adc <= 62))
   \   000012   74E4         MOV     A,#-0x1c
   \   000014   28           ADD     A,R0
   \   000015   C3           CLR     C
   \   000016   9423         SUBB    A,#0x23
   \   000018   5005         JNC     ??halGetJoyKeyInput_1
    460              {
    461                 ksave0 |=HAL_KEY_DOWN;//HAL_KEY_UP;
   \   00001A   EE           MOV     A,R6
   \   00001B   D2E4         SETB    0xE0 /* A   */.4
   \   00001D   8023         SJMP    ??halGetJoyKeyInput_2
    462              }
    463              else if ((adc < 28))
   \                     ??halGetJoyKeyInput_1:
   \   00001F   E8           MOV     A,R0
   \   000020   C3           CLR     C
   \   000021   941C         SUBB    A,#0x1c
   \   000023   5005         JNC     ??halGetJoyKeyInput_3
    464              {
    465                ksave0 |=HAL_KEY_UP; 
   \   000025   EE           MOV     A,R6
   \   000026   D2E0         SETB    0xE0 /* A   */.0
   \   000028   8018         SJMP    ??halGetJoyKeyInput_2
    466              }
    467              else if ((adc >= 60) && (adc <= 89))
   \                     ??halGetJoyKeyInput_3:
   \   00002A   74C4         MOV     A,#-0x3c
   \   00002C   28           ADD     A,R0
   \   00002D   C3           CLR     C
   \   00002E   941E         SUBB    A,#0x1e
   \   000030   5005         JNC     ??halGetJoyKeyInput_4
    468              {
    469                ksave0 |= HAL_KEY_RIGHT;//HAL_KEY_LEFT;
   \   000032   EE           MOV     A,R6
   \   000033   D2E1         SETB    0xE0 /* A   */.1
   \   000035   800B         SJMP    ??halGetJoyKeyInput_2
    470              }
    471              else if ((adc >= 89) && (adc <= 100))
   \                     ??halGetJoyKeyInput_4:
   \   000037   74A7         MOV     A,#-0x59
   \   000039   28           ADD     A,R0
   \   00003A   C3           CLR     C
   \   00003B   940C         SUBB    A,#0xc
   \   00003D   5004         JNC     ??halGetJoyKeyInput_5
    472              {
    473                ksave0 |=  HAL_KEY_LEFT;//HAL_KEY_UP;//HAL_KEY_CENTER;
   \   00003F   EE           MOV     A,R6
   \   000040   D2E3         SETB    0xE0 /* A   */.3
   \                     ??halGetJoyKeyInput_2:
   \   000042   FE           MOV     R6,A
    474              }
    475            } while (ksave0 != ksave1);
   \                     ??halGetJoyKeyInput_5:
   \   000043   EF           MOV     A,R7
   \   000044   6E           XRL     A,R6
   \   000045   70C0         JNZ     ??halGetJoyKeyInput_0
    476          
    477            return ksave0;
   \   000047   EE           MOV     A,R6
   \   000048   02....       LJMP    ?Subroutine1 & 0xFFFF
    478          }
    479          
    480          
    481          
    482          
    483          
    484          /**************************************************************************************************
    485           * @fn      halProcessKeyInterrupt
    486           *
    487           * @brief   Checks to see if it's a valid key interrupt, saves interrupt driven key states for
    488           *          processing by HalKeyRead(), and debounces keys by scheduling HalKeyRead() 25ms later.
    489           *
    490           * @param
    491           *
    492           * @return
    493           **************************************************************************************************/

   \                                 In  segment BANKED_CODE, align 1, keep-with-next
    494          void halProcessKeyInterrupt (void)
   \                     halProcessKeyInterrupt:
    495          {
   \   000000   C082         PUSH    DPL
   \   000002   C083         PUSH    DPH
   \   000004                ; Saved register size: 2
   \   000004                ; Auto size: 0
    496            bool valid=FALSE;
   \   000004   7800         MOV     R0,#0x0
    497          
    498            if (HAL_KEY_SW_6_PXIFG & HAL_KEY_SW_6_BIT)  /* Interrupt Flag has been set */
   \   000006   E589         MOV     A,0x89
   \   000008   A2E5         MOV     C,0xE0 /* A   */.5
   \   00000A   5004         JNC     ??halProcessKeyInterrupt_0
    499            {
    500              HAL_KEY_SW_6_PXIFG = ~(HAL_KEY_SW_6_BIT); /* Clear Interrupt Flag */
   \   00000C   7589DF       MOV     0x89,#-0x21
    501              valid = TRUE;
   \   00000F   08           INC     R0
    502            }
    503            if (HAL_KEY_SW_7_PXIFG & HAL_KEY_SW_7_BIT)  /* Interrupt Flag has been set */
   \                     ??halProcessKeyInterrupt_0:
   \   000010   E589         MOV     A,0x89
   \   000012   A2E4         MOV     C,0xE0 /* A   */.4
   \   000014   5005         JNC     ??halProcessKeyInterrupt_1
    504            {
    505              HAL_KEY_SW_7_PXIFG = ~(HAL_KEY_SW_7_BIT); /* Clear Interrupt Flag */
   \   000016   7589EF       MOV     0x89,#-0x11
    506              valid = TRUE;
   \   000019   7801         MOV     R0,#0x1
    507            }
    508          
    509            if (HAL_KEY_JOY_MOVE_PXIFG & HAL_KEY_JOY_MOVE_BIT)  /* Interrupt Flag has been set */
   \                     ??halProcessKeyInterrupt_1:
   \   00001B   E58B         MOV     A,0x8b
   \   00001D   A2E0         MOV     C,0xE0 /* A   */.0
   \   00001F   5005         JNC     ??halProcessKeyInterrupt_2
    510            {
    511              HAL_KEY_JOY_MOVE_PXIFG = ~(HAL_KEY_JOY_MOVE_BIT); /* Clear Interrupt Flag */
   \   000021   758BFE       MOV     0x8b,#-0x2
    512              valid = TRUE;
   \   000024   8005         SJMP    ??halProcessKeyInterrupt_3
    513            }
    514          
    515            if (valid)
   \                     ??halProcessKeyInterrupt_2:
   \   000026   E8           MOV     A,R0
   \   000027   A2E0         MOV     C,0xE0 /* A   */.0
   \   000029   5010         JNC     ??halProcessKeyInterrupt_4
    516            {
    517              osal_start_timerEx (Hal_TaskID, HAL_KEY_EVENT, HAL_KEY_DEBOUNCE_VALUE);
   \                     ??halProcessKeyInterrupt_3:
   \   00002B                ; Setup parameters for call to function osal_start_timerEx
   \   00002B   7C19         MOV     R4,#0x19
   \   00002D   7D00         MOV     R5,#0x0
   \   00002F   7A01         MOV     R2,#0x1
   \   000031   7B00         MOV     R3,#0x0
   \   000033   90....       MOV     DPTR,#Hal_TaskID
   \   000036   E0           MOVX    A,@DPTR
   \   000037   F9           MOV     R1,A
   \   000038   12....       LCALL   ??osal_start_timerEx?relay
    518            }
    519          }
   \                     ??halProcessKeyInterrupt_4:
   \   00003B   02....       LJMP    ?Subroutine0 & 0xFFFF
   \   00003E                REQUIRE P0IFG
   \   00003E                REQUIRE P2IFG
    520          
    521          /**************************************************************************************************
    522           * @fn      HalKeyEnterSleep
    523           *
    524           * @brief  - Get called to enter sleep mode
    525           *
    526           * @param
    527           *
    528           * @return
    529           **************************************************************************************************/

   \                                 In  segment BANKED_CODE, align 1, keep-with-next
    530          void HalKeyEnterSleep ( void )
   \                     HalKeyEnterSleep:
    531          {
   \   000000                ; Saved register size: 0
   \   000000                ; Auto size: 0
    532          }
   \   000000   02....       LJMP    ?BRET
    533          
    534          /**************************************************************************************************
    535           * @fn      HalKeyExitSleep
    536           *
    537           * @brief   - Get called when sleep is over
    538           *
    539           * @param
    540           *
    541           * @return  - return saved keys
    542           **************************************************************************************************/

   \                                 In  segment BANKED_CODE, align 1, keep-with-next
    543          uint8 HalKeyExitSleep ( void )
   \                     HalKeyExitSleep:
    544          {
   \   000000   C082         PUSH    DPL
   \   000002   C083         PUSH    DPH
   \   000004                ; Saved register size: 2
   \   000004                ; Auto size: 0
    545            /* Wake up and read keys */
    546            return ( HalKeyRead () );
   \   000004                ; Setup parameters for call to function HalKeyRead
   \   000004   12....       LCALL   ??HalKeyRead?relay
   \   000007   02....       LJMP    ?Subroutine0 & 0xFFFF
    547          }
    548          
    549          /***************************************************************************************************
    550           *                                    INTERRUPT SERVICE ROUTINE
    551           ***************************************************************************************************/
    552          
    553          /**************************************************************************************************
    554           * @fn      halKeyPort0Isr
    555           *
    556           * @brief   Port0 ISR
    557           *
    558           * @param
    559           *
    560           * @return
    561           **************************************************************************************************/

   \                                 In  segment NEAR_CODE, align 1, keep-with-next
    562          HAL_ISR_FUNCTION( halKeyPort0Isr, P0INT_VECTOR )
   \                     halKeyPort0Isr:
    563          {
   \   000000   C0E0         PUSH    A
   \   000002   74F2         MOV     A,#-0xe
   \   000004   12....       LCALL   ?INTERRUPT_ENTER_XSP
   \   000007                ; Saved register size: 14
   \   000007                ; Auto size: 0
    564            if ((HAL_KEY_SW_6_PXIFG & HAL_KEY_SW_6_BIT)||(HAL_KEY_SW_7_PXIFG & HAL_KEY_SW_7_BIT))
   \   000007   E589         MOV     A,0x89
   \   000009   A2E5         MOV     C,0xE0 /* A   */.5
   \   00000B   4006         JC      ??halKeyPort0Isr_0
   \   00000D   E589         MOV     A,0x89
   \   00000F   A2E4         MOV     C,0xE0 /* A   */.4
   \   000011   5003         JNC     ??halKeyPort0Isr_1
    565            {
    566              halProcessKeyInterrupt();
   \                     ??halKeyPort0Isr_0:
   \   000013                ; Setup parameters for call to function halProcessKeyInterrupt
   \   000013   12....       LCALL   ??halProcessKeyInterrupt?relay
    567            }
    568          
    569            /*
    570              Clear the CPU interrupt flag for Port_0
    571              PxIFG has to be cleared before PxIF
    572            */
    573            HAL_KEY_SW_6_PXIFG = 0;
   \                     ??halKeyPort0Isr_1:
   \   000016   758900       MOV     0x89,#0x0
    574            HAL_KEY_CPU_PORT_0_IF = 0;
   \   000019   C2C5         CLR     0xc0.5
    575          }
   \   00001B                REQUIRE ?Subroutine2
   \   00001B                REQUIRE P0IFG
   \   00001B                REQUIRE _A_IRCON
   \   00001B                ; // Fall through to label ?Subroutine2

   \                                 In  segment NEAR_CODE, align 1, keep-with-next
   \                     ?Subroutine2:
   \   000000   7F01         MOV     R7,#0x1
   \   000002   02....       LJMP    ?INTERRUPT_LEAVE_XSP
    576          
    577          
    578          /**************************************************************************************************
    579           * @fn      halKeyPort2Isr
    580           *
    581           * @brief   Port2 ISR
    582           *
    583           * @param
    584           *
    585           * @return
    586           **************************************************************************************************/

   \                                 In  segment NEAR_CODE, align 1, keep-with-next
    587          HAL_ISR_FUNCTION( halKeyPort2Isr, P2INT_VECTOR )
   \                     halKeyPort2Isr:
    588          {
   \   000000   C0E0         PUSH    A
   \   000002   74F2         MOV     A,#-0xe
   \   000004   12....       LCALL   ?INTERRUPT_ENTER_XSP
   \   000007                ; Saved register size: 14
   \   000007                ; Auto size: 0
    589            if (HAL_KEY_JOY_MOVE_PXIFG & HAL_KEY_JOY_MOVE_BIT)
   \   000007   E58B         MOV     A,0x8b
   \   000009   A2E0         MOV     C,0xE0 /* A   */.0
   \   00000B   5003         JNC     ??halKeyPort2Isr_0
    590            {
    591              halProcessKeyInterrupt();
   \   00000D                ; Setup parameters for call to function halProcessKeyInterrupt
   \   00000D   12....       LCALL   ??halProcessKeyInterrupt?relay
    592            }
    593          
    594            /*
    595              Clear the CPU interrupt flag for Port_2
    596              PxIFG has to be cleared before PxIF
    597              Notes: P2_1 and P2_2 are debug lines.
    598            */
    599            HAL_KEY_JOY_MOVE_PXIFG = 0;
   \                     ??halKeyPort2Isr_0:
   \   000010   758B00       MOV     0x8b,#0x0
    600            HAL_KEY_CPU_PORT_2_IF = 0;
   \   000013   C2E8         CLR     0xe8.0
    601          }
   \   000015   80..         SJMP    ?Subroutine2
   \   000017                REQUIRE P2IFG
   \   000017                REQUIRE _A_IRCON2

   \                                 In  segment INTVEC, offset 0x33, root
   \                     `??halKeyPort2Isr??INTVEC 51`:
   \   000033   02....       LJMP       (halKeyPort2Isr)

   \                                 In  segment INTVEC, offset 0x6b, root
   \                     `??halKeyPort0Isr??INTVEC 107`:
   \   00006B   02....       LJMP       (halKeyPort0Isr)

   \                                 In  segment BANK_RELAYS, align 1
   \                     ??HalKeyInit?relay:
   \   000000   12....       LCALL   ?BDISPATCH
   \   000003   ......       DC24    HalKeyInit

   \                                 In  segment BANK_RELAYS, align 1
   \                     ??HalKeyConfig?relay:
   \   000000   12....       LCALL   ?BDISPATCH
   \   000003   ......       DC24    HalKeyConfig

   \                                 In  segment BANK_RELAYS, align 1
   \                     ??HalKeyRead?relay:
   \   000000   12....       LCALL   ?BDISPATCH
   \   000003   ......       DC24    HalKeyRead

   \                                 In  segment BANK_RELAYS, align 1
   \                     ??HalKeyPoll?relay:
   \   000000   12....       LCALL   ?BDISPATCH
   \   000003   ......       DC24    HalKeyPoll

   \                                 In  segment BANK_RELAYS, align 1
   \                     ??halGetJoyKeyInput?relay:
   \   000000   12....       LCALL   ?BDISPATCH
   \   000003   ......       DC24    halGetJoyKeyInput

   \                                 In  segment BANK_RELAYS, align 1
   \                     ??halProcessKeyInterrupt?relay:
   \   000000   12....       LCALL   ?BDISPATCH
   \   000003   ......       DC24    halProcessKeyInterrupt

   \                                 In  segment BANK_RELAYS, align 1
   \                     ??HalKeyEnterSleep?relay:
   \   000000   12....       LCALL   ?BDISPATCH
   \   000003   ......       DC24    HalKeyEnterSleep

   \                                 In  segment BANK_RELAYS, align 1
   \                     ??HalKeyExitSleep?relay:
   \   000000   12....       LCALL   ?BDISPATCH
   \   000003   ......       DC24    HalKeyExitSleep
    602          
    603          #else
    604          
    605          
    606          void HalKeyInit(void){}
    607          void HalKeyConfig(bool interruptEnable, halKeyCBack_t cback){}
    608          uint8 HalKeyRead(void){ return 0;}
    609          void HalKeyPoll(void){}
    610          
    611          #endif /* HAL_KEY */
    612          
    613          
    614          
    615          
    616          
    617          /**************************************************************************************************
    618          **************************************************************************************************/
    619          
    620          
    621          

   Maximum stack usage in bytes:

     Function                    ISTACK PSTACK XSTACK
     --------                    ------ ------ ------
     HalKeyConfig                    0      0      9
       -> osal_stop_timerEx          0      0     18
       -> osal_start_timerEx         0      0     18
     HalKeyEnterSleep                0      0      0
     HalKeyExitSleep                 2      0      0
       -> HalKeyRead                 4      0      0
     HalKeyInit                      2      0      0
     HalKeyPoll                      0      0      9
       -> halGetJoyKeyInput          0      0     18
     HalKeyRead                      0      0      9
       -> halGetJoyKeyInput          0      0     18
     halGetJoyKeyInput               0      0     18
       -> HalAdcRead                 0      0     18
     halKeyPort0Isr                  0      0     14
       -> halProcessKeyInterrupt     0      0     28
     halKeyPort2Isr                  0      0     14
       -> halProcessKeyInterrupt     0      0     28
     halProcessKeyInterrupt          2      0     14
       -> osal_start_timerEx         4      0      0


   Segment part sizes:

     Function/Label                 Bytes
     --------------                 -----
     _A_P0                             1
     P0IFG                             1
     P2IFG                             1
     PICTL                             1
     P0IEN                             1
     _A_IEN1                           1
     _A_IRCON                          1
     _A_IRCON2                         1
     P0SEL                             1
     P0DIR                             1
     halKeySavedKeys                   1
     pHalKeyProcessFunction            2
     HalKeyConfigured                  1
     Hal_KeyIntEnable                  1
     HalKeyInit                       31
     ?Subroutine0                      7
     HalKeyConfig                    110
     HalKeyRead                       26
     ?Subroutine1                      1
     ??Subroutine3_0                   5
     HalKeyPoll                       78
     halGetJoyKeyInput                75
     halProcessKeyInterrupt           62
     HalKeyEnterSleep                  3
     HalKeyExitSleep                  10
     halKeyPort0Isr                   27
     ?Subroutine2                      5
     halKeyPort2Isr                   23
     ??halKeyPort2Isr??INTVEC 51       3
     ??halKeyPort0Isr??INTVEC 107      3
     ??HalKeyInit?relay                6
     ??HalKeyConfig?relay              6
     ??HalKeyRead?relay                6
     ??HalKeyPoll?relay                6
     ??halGetJoyKeyInput?relay         6
     ??halProcessKeyInterrupt?relay    6
     ??HalKeyEnterSleep?relay          6
     ??HalKeyExitSleep?relay           6

 
 408 bytes in segment BANKED_CODE
  48 bytes in segment BANK_RELAYS
   6 bytes in segment INTVEC
  55 bytes in segment NEAR_CODE
  10 bytes in segment SFR_AN
   5 bytes in segment XDATA_Z
 
 511 bytes of CODE  memory (+  6 bytes shared)
   0 bytes of DATA  memory (+ 10 bytes shared)
   5 bytes of XDATA memory

Errors: none
Warnings: none
