###############################################################################
#                                                                             #
# IAR C/C++ Compiler V8.10.3.10338/W32 for 8051         19/Jun/2019  14:08:35 #
# Copyright 2004-2011 IAR Systems AB.                                         #
#                                                                             #
#    Core               =  plain                                              #
#    Code model         =  banked                                             #
#    Data model         =  large                                              #
#    Calling convention =  xdata reentrant                                    #
#    Constant location  =  data_rom                                           #
#    Dptr setup         =  1,16                                               #
#    Source file        =  C:\Users\fangxi1998\Desktop\øŒ≥Ã…Ëº∆\zigbee        #
#                          «∂»Î Ωlinux\zigbee◊Ó÷’\1\Zigbee-TempFireHumi\Texas #
#                           Instruments\Components\mt\MT_ZDO.c                #
#    Command line       =  -f "C:\Users\fangxi1998\Desktop\øŒ≥Ã…Ëº∆\zigbee    #
#                          «∂»Î Ωlinux\zigbee◊Ó÷’\1\Zigbee-TempFireHumi\Texas #
#                           Instruments\Projects\zstack\Samples\MyfirstAPP\CC #
#                          2530DB\..\..\..\Tools\CC2530DB\f8wCoord.cfg"       #
#                          (-DCPU32MHZ -DROOT=__near_func                     #
#                          -DMAC_CFG_APP_PENDING_QUEUE=TRUE                   #
#                          -DZDO_COORDINATOR -DRTR_NWK -DBLINK_LEDS) -f       #
#                          "C:\Users\fangxi1998\Desktop\øŒ≥Ã…Ëº∆\zigbee       #
#                          «∂»Î Ωlinux\zigbee◊Ó÷’\1\Zigbee-TempFireHumi\Texas #
#                           Instruments\Projects\zstack\Samples\MyfirstAPP\CC #
#                          2530DB\..\..\..\Tools\CC2530DB\f8wConfig.cfg"      #
#                          (-DSECURE=0 -DZG_SECURE_DYNAMIC=0 -DREFLECTOR      #
#                          -DDEFAULT_CHANLIST=0x04000000                      #
#                          -DZDAPP_CONFIG_PAN_ID=0xA1B2                       #
#                          -DNWK_START_DELAY=100 -DEXTENDED_JOINING_RANDOM_MA #
#                          SK=0x007F -DBEACON_REQUEST_DELAY=100               #
#                          -DBEACON_REQ_DELAY_MASK=0x00FF                     #
#                          -DROUTE_EXPIRY_TIME=30 -DAPSC_ACK_WAIT_DURATION_PO #
#                          LLED=3000 -DNWK_INDIRECT_MSG_TIMEOUT=7             #
#                          -DMAX_RREQ_ENTRIES=8 -DAPSC_MAX_FRAME_RETRIES=3    #
#                          -DNWK_MAX_DATA_RETRIES=2                           #
#                          -DMAX_POLL_FAILURE_RETRIES=2 -DMAX_BCAST=9         #
#                          -DAPS_MAX_GROUPS=16 -DMAX_RTG_ENTRIES=40           #
#                          -DNWK_MAX_BINDING_ENTRIES=4                        #
#                          -DMAX_BINDING_CLUSTER_IDS=4 "-DDEFAULT_KEY={0x01,  #
#                          0x03, 0x05, 0x07, 0x09, 0x0B, 0x0D, 0x0F, 0x00,    #
#                          0x02, 0x04, 0x06, 0x08, 0x0A, 0x0C, 0x0D}"         #
#                          -DMAC_MAX_FRAME_SIZE=116 "-DCONST=const __code"    #
#                          -DGENERIC=__generic -DRFD_RCVC_ALWAYS_ON=FALSE     #
#                          -DPOLL_RATE=1000 -DQUEUED_POLL_RATE=100            #
#                          -DRESPONSE_POLL_RATE=100) -DREJOIN_POLL_RATE=440   #
#                          "C:\Users\fangxi1998\Desktop\øŒ≥Ã…Ëº∆\zigbee       #
#                          «∂»Î Ωlinux\zigbee◊Ó÷’\1\Zigbee-TempFireHumi\Texas #
#                           Instruments\Components\mt\MT_ZDO.c" -D ZIGBEEPRO  #
#                          -D ZTOOL_P1 -D MT_TASK -D MT_SYS_FUNC -D           #
#                          MT_ZDO_FUNC -D LCD_SUPPORTED=DEBUG -D              #
#                          DH_AD_KEY_DEVICE -lC "C:\Users\fangxi1998\Desktop\ #
#                          øŒ≥Ã…Ëº∆\zigbee «∂»Î Ωlinux\zigbee◊Ó÷’\1\Zigbee-Te #
#                          mpFireHumi\Texas Instruments\Projects\zstack\Sampl #
#                          es\MyfirstAPP\CC2530DB\CoordinatorEB-Pro\List\"    #
#                          -lA "C:\Users\fangxi1998\Desktop\øŒ≥Ã…Ëº∆\zigbee   #
#                          «∂»Î Ωlinux\zigbee◊Ó÷’\1\Zigbee-TempFireHumi\Texas #
#                           Instruments\Projects\zstack\Samples\MyfirstAPP\CC #
#                          2530DB\CoordinatorEB-Pro\List\" --diag_suppress    #
#                          Pe001,Pa010 -o "C:\Users\fangxi1998\Desktop\øŒ≥Ã…Ë #
#                          º∆\zigbee «∂»Î Ωlinux\zigbee◊Ó÷’\1\Zigbee-TempFire #
#                          Humi\Texas Instruments\Projects\zstack\Samples\Myf #
#                          irstAPP\CC2530DB\CoordinatorEB-Pro\Obj\" -e        #
#                          --debug --core=plain --dptr=16,1                   #
#                          --data_model=large --code_model=banked             #
#                          --calling_convention=xdata_reentrant               #
#                          --place_constants=data_rom --nr_virtual_regs 8 -I  #
#                          "C:\Users\fangxi1998\Desktop\øŒ≥Ã…Ëº∆\zigbee       #
#                          «∂»Î Ωlinux\zigbee◊Ó÷’\1\Zigbee-TempFireHumi\Texas #
#                           Instruments\Projects\zstack\Samples\MyfirstAPP\CC #
#                          2530DB\" -I "C:\Users\fangxi1998\Desktop\øŒ≥Ã…Ëº∆\ #
#                          zigbee «∂»Î Ωlinux\zigbee◊Ó÷’\1\Zigbee-TempFireHum #
#                          i\Texas Instruments\Projects\zstack\Samples\Myfirs #
#                          tAPP\CC2530DB\..\SOURCE\" -I                       #
#                          "C:\Users\fangxi1998\Desktop\øŒ≥Ã…Ëº∆\zigbee       #
#                          «∂»Î Ωlinux\zigbee◊Ó÷’\1\Zigbee-TempFireHumi\Texas #
#                           Instruments\Projects\zstack\Samples\MyfirstAPP\CC #
#                          2530DB\..\..\..\ZMAIN\TI2530DB\" -I                #
#                          "C:\Users\fangxi1998\Desktop\øŒ≥Ã…Ëº∆\zigbee       #
#                          «∂»Î Ωlinux\zigbee◊Ó÷’\1\Zigbee-TempFireHumi\Texas #
#                           Instruments\Projects\zstack\Samples\MyfirstAPP\CC #
#                          2530DB\..\..\..\..\..\COMPONENTS\MT\" -I           #
#                          "C:\Users\fangxi1998\Desktop\øŒ≥Ã…Ëº∆\zigbee       #
#                          «∂»Î Ωlinux\zigbee◊Ó÷’\1\Zigbee-TempFireHumi\Texas #
#                           Instruments\Projects\zstack\Samples\MyfirstAPP\CC #
#                          2530DB\..\..\..\..\..\COMPONENTS\HAL\INCLUDE\" -I  #
#                          "C:\Users\fangxi1998\Desktop\øŒ≥Ã…Ëº∆\zigbee       #
#                          «∂»Î Ωlinux\zigbee◊Ó÷’\1\Zigbee-TempFireHumi\Texas #
#                           Instruments\Projects\zstack\Samples\MyfirstAPP\CC #
#                          2530DB\..\..\..\..\..\COMPONENTS\HAL\TARGET\CC2530 #
#                          EB\" -I "C:\Users\fangxi1998\Desktop\øŒ≥Ã…Ëº∆\zigb #
#                          ee «∂»Î Ωlinux\zigbee◊Ó÷’\1\Zigbee-TempFireHumi\Te #
#                          xas Instruments\Projects\zstack\Samples\MyfirstAPP #
#                          \CC2530DB\..\..\..\..\..\COMPONENTS\OSAL\MCU\CCSOC #
#                          \" -I "C:\Users\fangxi1998\Desktop\øŒ≥Ã…Ëº∆\zigbee #
#                           «∂»Î Ωlinux\zigbee◊Ó÷’\1\Zigbee-TempFireHumi\Texa #
#                          s Instruments\Projects\zstack\Samples\MyfirstAPP\C #
#                          C2530DB\..\..\..\..\..\COMPONENTS\OSAL\INCLUDE\"   #
#                          -I "C:\Users\fangxi1998\Desktop\øŒ≥Ã…Ëº∆\zigbee    #
#                          «∂»Î Ωlinux\zigbee◊Ó÷’\1\Zigbee-TempFireHumi\Texas #
#                           Instruments\Projects\zstack\Samples\MyfirstAPP\CC #
#                          2530DB\..\..\..\..\..\COMPONENTS\STACK\AF\" -I     #
#                          "C:\Users\fangxi1998\Desktop\øŒ≥Ã…Ëº∆\zigbee       #
#                          «∂»Î Ωlinux\zigbee◊Ó÷’\1\Zigbee-TempFireHumi\Texas #
#                           Instruments\Projects\zstack\Samples\MyfirstAPP\CC #
#                          2530DB\..\..\..\..\..\COMPONENTS\STACK\NWK\" -I    #
#                          "C:\Users\fangxi1998\Desktop\øŒ≥Ã…Ëº∆\zigbee       #
#                          «∂»Î Ωlinux\zigbee◊Ó÷’\1\Zigbee-TempFireHumi\Texas #
#                           Instruments\Projects\zstack\Samples\MyfirstAPP\CC #
#                          2530DB\..\..\..\..\..\COMPONENTS\STACK\SEC\" -I    #
#                          "C:\Users\fangxi1998\Desktop\øŒ≥Ã…Ëº∆\zigbee       #
#                          «∂»Î Ωlinux\zigbee◊Ó÷’\1\Zigbee-TempFireHumi\Texas #
#                           Instruments\Projects\zstack\Samples\MyfirstAPP\CC #
#                          2530DB\..\..\..\..\..\COMPONENTS\STACK\SAPI\" -I   #
#                          "C:\Users\fangxi1998\Desktop\øŒ≥Ã…Ëº∆\zigbee       #
#                          «∂»Î Ωlinux\zigbee◊Ó÷’\1\Zigbee-TempFireHumi\Texas #
#                           Instruments\Projects\zstack\Samples\MyfirstAPP\CC #
#                          2530DB\..\..\..\..\..\COMPONENTS\STACK\SYS\" -I    #
#                          "C:\Users\fangxi1998\Desktop\øŒ≥Ã…Ëº∆\zigbee       #
#                          «∂»Î Ωlinux\zigbee◊Ó÷’\1\Zigbee-TempFireHumi\Texas #
#                           Instruments\Projects\zstack\Samples\MyfirstAPP\CC #
#                          2530DB\..\..\..\..\..\COMPONENTS\STACK\ZDO\" -I    #
#                          "C:\Users\fangxi1998\Desktop\øŒ≥Ã…Ëº∆\zigbee       #
#                          «∂»Î Ωlinux\zigbee◊Ó÷’\1\Zigbee-TempFireHumi\Texas #
#                           Instruments\Projects\zstack\Samples\MyfirstAPP\CC #
#                          2530DB\..\..\..\..\..\COMPONENTS\ZMAC\F8W\" -I     #
#                          "C:\Users\fangxi1998\Desktop\øŒ≥Ã…Ëº∆\zigbee       #
#                          «∂»Î Ωlinux\zigbee◊Ó÷’\1\Zigbee-TempFireHumi\Texas #
#                           Instruments\Projects\zstack\Samples\MyfirstAPP\CC #
#                          2530DB\..\..\..\..\..\COMPONENTS\ZMAC\" -I         #
#                          "C:\Users\fangxi1998\Desktop\øŒ≥Ã…Ëº∆\zigbee       #
#                          «∂»Î Ωlinux\zigbee◊Ó÷’\1\Zigbee-TempFireHumi\Texas #
#                           Instruments\Projects\zstack\Samples\MyfirstAPP\CC #
#                          2530DB\..\..\..\..\..\COMPONENTS\SERVICES\SADDR\"  #
#                          -I "C:\Users\fangxi1998\Desktop\øŒ≥Ã…Ëº∆\zigbee    #
#                          «∂»Î Ωlinux\zigbee◊Ó÷’\1\Zigbee-TempFireHumi\Texas #
#                           Instruments\Projects\zstack\Samples\MyfirstAPP\CC #
#                          2530DB\..\..\..\..\..\COMPONENTS\SERVICES\SDATA\"  #
#                          -I "C:\Users\fangxi1998\Desktop\øŒ≥Ã…Ëº∆\zigbee    #
#                          «∂»Î Ωlinux\zigbee◊Ó÷’\1\Zigbee-TempFireHumi\Texas #
#                           Instruments\Projects\zstack\Samples\MyfirstAPP\CC #
#                          2530DB\..\..\..\..\..\COMPONENTS\MAC\INCLUDE\" -I  #
#                          "C:\Users\fangxi1998\Desktop\øŒ≥Ã…Ëº∆\zigbee       #
#                          «∂»Î Ωlinux\zigbee◊Ó÷’\1\Zigbee-TempFireHumi\Texas #
#                           Instruments\Projects\zstack\Samples\MyfirstAPP\CC #
#                          2530DB\..\..\..\..\..\COMPONENTS\MAC\HIGH_LEVEL\"  #
#                          -I "C:\Users\fangxi1998\Desktop\øŒ≥Ã…Ëº∆\zigbee    #
#                          «∂»Î Ωlinux\zigbee◊Ó÷’\1\Zigbee-TempFireHumi\Texas #
#                           Instruments\Projects\zstack\Samples\MyfirstAPP\CC #
#                          2530DB\..\..\..\..\..\COMPONENTS\MAC\LOW_LEVEL\srf #
#                          04\" -I "C:\Users\fangxi1998\Desktop\øŒ≥Ã…Ëº∆\zigb #
#                          ee «∂»Î Ωlinux\zigbee◊Ó÷’\1\Zigbee-TempFireHumi\Te #
#                          xas Instruments\Projects\zstack\Samples\MyfirstAPP #
#                          \CC2530DB\..\..\..\..\..\COMPONENTS\MAC\LOW_LEVEL\ #
#                          srf04\SINGLE_CHIP\" -Ohz --require_prototypes      #
#    List file          =  C:\Users\fangxi1998\Desktop\øŒ≥Ã…Ëº∆\zigbee        #
#                          «∂»Î Ωlinux\zigbee◊Ó÷’\1\Zigbee-TempFireHumi\Texas #
#                           Instruments\Projects\zstack\Samples\MyfirstAPP\CC #
#                          2530DB\CoordinatorEB-Pro\List\MT_ZDO.lst           #
#    Object file        =  C:\Users\fangxi1998\Desktop\øŒ≥Ã…Ëº∆\zigbee        #
#                          «∂»Î Ωlinux\zigbee◊Ó÷’\1\Zigbee-TempFireHumi\Texas #
#                           Instruments\Projects\zstack\Samples\MyfirstAPP\CC #
#                          2530DB\CoordinatorEB-Pro\Obj\MT_ZDO.r51            #
#                                                                             #
#                                                                             #
###############################################################################

C:\Users\fangxi1998\Desktop\øŒ≥Ã…Ëº∆\zigbee «∂»Î Ωlinux\zigbee◊Ó÷’\1\Zigbee-TempFireHumi\Texas Instruments\Components\mt\MT_ZDO.c
      1          /**************************************************************************************************
      2            Filename:       MT_ZDO.c
      3            Revised:        $Date: 2009-01-05 16:58:00 -0800 (Mon, 05 Jan 2009) $
      4            Revision:       $Revision: 18682 $
      5          
      6            Description:    MonitorTest functions for the ZDO layer.
      7          
      8          
      9            Copyright 2004-2007 Texas Instruments Incorporated. All rights reserved.
     10          
     11            IMPORTANT: Your use of this Software is limited to those specific rights
     12            granted under the terms of a software license agreement between the user
     13            who downloaded the software, his/her employer (which must be your employer)
     14            and Texas Instruments Incorporated (the "License").  You may not use this
     15            Software unless you agree to abide by the terms of the License. The License
     16            limits your use, and you acknowledge, that the Software may not be modified,
     17            copied or distributed unless embedded on a Texas Instruments microcontroller
     18            or used solely and exclusively in conjunction with a Texas Instruments radio
     19            frequency transceiver, which is integrated into your product.  Other than for
     20            the foregoing purpose, you may not use, reproduce, copy, prepare derivative
     21            works of, modify, distribute, perform, display or sell this Software and/or
     22            its documentation for any purpose.
     23          
     24            YOU FURTHER ACKNOWLEDGE AND AGREE THAT THE SOFTWARE AND DOCUMENTATION ARE
     25            PROVIDED ìAS ISî WITHOUT WARRANTY OF ANY KIND, EITHER EXPRESS OR IMPLIED,
     26            INCLUDING WITHOUT LIMITATION, ANY WARRANTY OF MERCHANTABILITY, TITLE,
     27            NON-INFRINGEMENT AND FITNESS FOR A PARTICULAR PURPOSE. IN NO EVENT SHALL
     28            TEXAS INSTRUMENTS OR ITS LICENSORS BE LIABLE OR OBLIGATED UNDER CONTRACT,
     29            NEGLIGENCE, STRICT LIABILITY, CONTRIBUTION, BREACH OF WARRANTY, OR OTHER
     30            LEGAL EQUITABLE THEORY ANY DIRECT OR INDIRECT DAMAGES OR EXPENSES
     31            INCLUDING BUT NOT LIMITED TO ANY INCIDENTAL, SPECIAL, INDIRECT, PUNITIVE
     32            OR CONSEQUENTIAL DAMAGES, LOST PROFITS OR LOST DATA, COST OF PROCUREMENT
     33            OF SUBSTITUTE GOODS, TECHNOLOGY, SERVICES, OR ANY CLAIMS BY THIRD PARTIES
     34            (INCLUDING BUT NOT LIMITED TO ANY DEFENSE THEREOF), OR OTHER SIMILAR COSTS.
     35          
     36            Should you have any questions regarding your right to use this Software,
     37            contact Texas Instruments Incorporated at www.TI.com.
     38          **************************************************************************************************/
     39          
     40          #ifdef MT_ZDO_FUNC
     41          
     42          /**************************************************************************************************
     43           * INCLUDES
     44           **************************************************************************************************/
     45          #include "ZComDef.h"
     46          #include "OSAL.h"
     47          #include "MT.h"
     48          #include "MT_ZDO.h"
     49          #include "APSMEDE.h"
     50          #include "ZDConfig.h"
     51          #include "ZDProfile.h"
     52          #include "ZDObject.h"
     53          #include "ZDApp.h"
     54          
     55          #if !defined( WIN32 )
     56            #include "OnBoard.h"
     57          #endif
     58          
     59          #include "nwk_util.h"
     60          
     61          /**************************************************************************************************
     62           * CONSTANTS
     63           **************************************************************************************************/
     64          #define MT_ZDO_END_DEVICE_ANNCE_IND_LEN   0x0D
     65          #define MT_ZDO_ADDR_RSP_LEN               0x0D
     66          #define MT_ZDO_BIND_UNBIND_RSP_LEN        0x03
     67          
     68          #define MTZDO_RESPONSE_BUFFER_LEN   100
     69          
     70          #define MTZDO_MAX_MATCH_CLUSTERS    16
     71          #define MTZDO_MAX_ED_BIND_CLUSTERS  15
     72          
     73          /**************************************************************************************************
     74           * GLOBAL VARIABLES
     75           **************************************************************************************************/

   \                                 In  segment XDATA_Z, align 1, keep-with-next
     76          uint32 _zdoCallbackSub;
   \                     _zdoCallbackSub:
   \   000000                DS 4
   \   000004                REQUIRE __INIT_XDATA_Z
     77          
     78          /**************************************************************************************************
     79           * LOCAL VARIABLES
     80           **************************************************************************************************/

   \                                 In  segment XDATA_Z, align 1, keep-with-next
     81          uint8 mtzdoResponseBuffer[MTZDO_RESPONSE_BUFFER_LEN];
   \                     mtzdoResponseBuffer:
   \   000000                DS 100
   \   000064                REQUIRE __INIT_XDATA_Z
     82          
     83          /**************************************************************************************************
     84           * LOCAL FUNCTIONS
     85           **************************************************************************************************/
     86          #if defined (MT_ZDO_FUNC)
     87          void MT_ZdoNWKAddressRequest(uint8 *pBuf);
     88          void MT_ZdoIEEEAddrRequest(uint8 *pBuf);
     89          void MT_ZdoNodeDescRequest(uint8 *pBuf);
     90          void MT_ZdoPowerDescRequest(uint8 *pBuf);
     91          void MT_ZdoSimpleDescRequest(uint8 *pBuf);
     92          void MT_ZdoActiveEpRequest(uint8 *pBuf);
     93          void MT_ZdoMatchDescRequest(uint8 *pBuf);
     94          void MT_ZdoComplexDescRequest(uint8 *pBuf);
     95          void MT_ZdoUserDescRequest(uint8 *pBuf);
     96          void MT_ZdoEndDevAnnce(uint8 *pBuf);
     97          void MT_ZdoUserDescSet(uint8 *pBuf);
     98          void MT_ZdoServiceDiscRequest(uint8 *pBuf);
     99          void MT_ZdoEndDevBindRequest(uint8 *pBuf);
    100          void MT_ZdoBindRequest(uint8 *pBuf);
    101          void MT_ZdoUnbindRequest(uint8 *pBuf);
    102          void MT_ZdoMgmtNwkDiscRequest(uint8 *pBuf);
    103          void MT_ZdoStartupFromApp(uint8 *pBuf);
    104          #if defined (MT_ZDO_MGMT)
    105          void MT_ZdoMgmtLqiRequest(uint8 *pBuf);
    106          void MT_ZdoMgmtRtgRequest(uint8 *pBuf);
    107          void MT_ZdoMgmtBindRequest(uint8 *pBuf);
    108          void MT_ZdoMgmtLeaveRequest(uint8 *pBuf);
    109          void MT_ZdoMgmtDirectJoinRequest(uint8 *pBuf);
    110          void MT_ZdoMgmtPermitJoinRequest(uint8 *pBuf);
    111          void MT_ZdoMgmtNwkUpdateRequest(uint8 *pBuf);
    112          #endif /* MT_ZDO_MGMT */
    113          #endif /* MT_ZDO_FUNC */
    114          
    115          #if defined (MT_ZDO_CB_FUNC)
    116          uint8 MT_ZdoHandleExceptions( afIncomingMSGPacket_t *pData, zdoIncomingMsg_t *inMsg );
    117          void MT_ZdoAddrRspCB( ZDO_NwkIEEEAddrResp_t *pMsg, uint16 clusterID );
    118          void MT_ZdoEndDevAnnceCB( ZDO_DeviceAnnce_t *pMsg, uint16 srcAddr );
    119          void MT_ZdoBindUnbindRspCB( uint16 clusterID, uint16 srcAddr, uint8 status );
    120          
    121          /* ZDO cluster ID to MT response command ID lookup */
    122          static const uint8 CODE mtZdoCluster2Rsp[4][7] =
    123          {
    124            {
    125              MT_ZDO_NWK_ADDR_RSP,         /* NWK_addr_req */
    126              MT_ZDO_IEEE_ADDR_RSP,        /* IEEE_addr_req */
    127              MT_ZDO_NODE_DESC_RSP,        /* Node_Desc_req */
    128              MT_ZDO_POWER_DESC_RSP,       /* Power_Desc_req */
    129              MT_ZDO_SIMPLE_DESC_RSP,      /* Simple_Desc_req */
    130              MT_ZDO_ACTIVE_EP_RSP,        /* Active_EP_req */
    131              MT_ZDO_MATCH_DESC_RSP        /* Match_Desc_req */
    132            },
    133            {
    134              MT_ZDO_COMPLEX_DESC_RSP,     /* Complex_Desc_req */
    135              MT_ZDO_USER_DESC_RSP,        /* User_Desc_req */
    136              0,                           /* Discovery_Cache_req */
    137              0,                           /* End_Device_annce */
    138              MT_ZDO_USER_DESC_CONF,       /* User_Desc_set */
    139              MT_ZDO_SERVER_DISC_RSP,      /* Server_Discovery_req */
    140              0
    141            },
    142            {
    143              MT_ZDO_END_DEVICE_BIND_RSP,  /* End_Device_Bind_req */
    144              MT_ZDO_BIND_RSP,             /* Bind_req */
    145              MT_ZDO_UNBIND_RSP,           /* Unbind_req */
    146              0,
    147              0,
    148              0,
    149              MT_ZDO_STATUS_ERROR_RSP      /* default error status msg */
    150            },
    151            {
    152              MT_ZDO_MGMT_NWK_DISC_RSP,    /* Mgmt_NWK_Disc_req */
    153              MT_ZDO_MGMT_LQI_RSP,         /* Mgmt_Lqi_req */
    154              MT_ZDO_MGMT_RTG_RSP,         /* Mgmt_Rtg_req */
    155              MT_ZDO_MGMT_BIND_RSP,        /* Mgmt_Bind_req */
    156              MT_ZDO_MGMT_LEAVE_RSP,       /* Mgmt_Leave_req */
    157              MT_ZDO_MGMT_DIRECT_JOIN_RSP, /* Mgmt_Direct_Join_req */
    158              MT_ZDO_MGMT_PERMIT_JOIN_RSP  /* Mgmt_Permit_Join_req */
    159            }
    160          };
    161          #endif /* MT_ZDO_CB_FUNC */
    162          
    163          #if defined (MT_ZDO_FUNC)
    164          /***************************************************************************************************
    165           * @fn      MT_ZdoCommandProcessing
    166           *
    167           * @brief
    168           *
    169           *   Process all the ZDO commands that are issued by test tool
    170           *
    171           * @param   pBuf - pointer to the msg buffer
    172           *
    173           *          | LEN  | CMD0  | CMD1  |  DATA  |
    174           *          |  1   |   1   |   1   |  0-255 |
    175           *
    176           * @return  status
    177           ***************************************************************************************************/

   \                                 In  segment BANKED_CODE, align 1, keep-with-next
    178          uint8 MT_ZdoCommandProcessing(uint8* pBuf)
   \                     MT_ZdoCommandProcessing:
    179          {
   \   000000   74F7         MOV     A,#-0x9
   \   000002   12....       LCALL   ?BANKED_ENTER_XDATA
   \   000005                ; Saved register size: 9
   \   000005                ; Auto size: 0
    180            uint8 status = MT_RPC_SUCCESS;
   \   000005   7E00         MOV     R6,#0x0
    181          
    182            switch (pBuf[MT_RPC_POS_CMD1])
   \   000007   8A82         MOV     DPL,R2
   \   000009   8B83         MOV     DPH,R3
   \   00000B   A3           INC     DPTR
   \   00000C   A3           INC     DPTR
   \   00000D   E0           MOVX    A,@DPTR
   \   00000E   6032         JZ      ??MT_ZdoCommandProcessing_0
   \   000010   14           DEC     A
   \   000011   6034         JZ      ??MT_ZdoCommandProcessing_1
   \   000013   14           DEC     A
   \   000014   6036         JZ      ??MT_ZdoCommandProcessing_2
   \   000016   14           DEC     A
   \   000017   6038         JZ      ??MT_ZdoCommandProcessing_3
   \   000019   14           DEC     A
   \   00001A   603A         JZ      ??MT_ZdoCommandProcessing_4
   \   00001C   14           DEC     A
   \   00001D   603C         JZ      ??MT_ZdoCommandProcessing_5
   \   00001F   14           DEC     A
   \   000020   603E         JZ      ??MT_ZdoCommandProcessing_6
   \   000022   14           DEC     A
   \   000023   6040         JZ      ??MT_ZdoCommandProcessing_7
   \   000025   14           DEC     A
   \   000026   6042         JZ      ??MT_ZdoCommandProcessing_8
   \   000028   24FE         ADD     A,#-0x2
   \   00002A   6043         JZ      ??MT_ZdoCommandProcessing_9
   \   00002C   14           DEC     A
   \   00002D   6045         JZ      ??MT_ZdoCommandProcessing_10
   \   00002F   14           DEC     A
   \   000030   6047         JZ      ??MT_ZdoCommandProcessing_11
   \   000032   24EC         ADD     A,#-0x14
   \   000034   6048         JZ      ??MT_ZdoCommandProcessing_12
   \   000036   14           DEC     A
   \   000037   604A         JZ      ??MT_ZdoCommandProcessing_13
   \   000039   14           DEC     A
   \   00003A   604C         JZ      ??MT_ZdoCommandProcessing_14
   \   00003C   24E2         ADD     A,#-0x1e
   \   00003E   604D         JZ      ??MT_ZdoCommandProcessing_15
   \   000040   8050         SJMP    ??MT_ZdoCommandProcessing_16
    183            {
    184          #if defined ( ZDO_NWKADDR_REQUEST )
    185              case MT_ZDO_NWK_ADDR_REQ:
    186                MT_ZdoNWKAddressRequest(pBuf);
   \                     ??MT_ZdoCommandProcessing_0:
   \   000042                ; Setup parameters for call to function MT_ZdoNWKAddressRequest
   \   000042   12....       LCALL   ??MT_ZdoNWKAddressRequest?relay
    187                break;
   \   000045   804D         SJMP    ??MT_ZdoCommandProcessing_17
    188          #endif
    189          
    190          #if defined ( ZDO_IEEEADDR_REQUEST )
    191              case MT_ZDO_IEEE_ADDR_REQ:
    192                MT_ZdoIEEEAddrRequest(pBuf);
   \                     ??MT_ZdoCommandProcessing_1:
   \   000047                ; Setup parameters for call to function MT_ZdoIEEEAddrRequest
   \   000047   12....       LCALL   ??MT_ZdoIEEEAddrRequest?relay
    193                break;
   \   00004A   8048         SJMP    ??MT_ZdoCommandProcessing_17
    194          #endif
    195          
    196          #if defined ( ZDO_NODEDESC_REQUEST )
    197              case MT_ZDO_NODE_DESC_REQ:
    198                MT_ZdoNodeDescRequest(pBuf);
   \                     ??MT_ZdoCommandProcessing_2:
   \   00004C                ; Setup parameters for call to function MT_ZdoNodeDescRequest
   \   00004C   12....       LCALL   ??MT_ZdoNodeDescRequest?relay
    199                break;
   \   00004F   8043         SJMP    ??MT_ZdoCommandProcessing_17
    200          #endif
    201          
    202          #if defined ( ZDO_POWERDESC_REQUEST )
    203              case MT_ZDO_POWER_DESC_REQ:
    204                MT_ZdoPowerDescRequest(pBuf);
   \                     ??MT_ZdoCommandProcessing_3:
   \   000051                ; Setup parameters for call to function MT_ZdoPowerDescRequest
   \   000051   12....       LCALL   ??MT_ZdoPowerDescRequest?relay
    205                break;
   \   000054   803E         SJMP    ??MT_ZdoCommandProcessing_17
    206          #endif
    207          
    208          #if defined ( ZDO_SIMPLEDESC_REQUEST )
    209              case MT_ZDO_SIMPLE_DESC_REQ:
    210                MT_ZdoSimpleDescRequest(pBuf);
   \                     ??MT_ZdoCommandProcessing_4:
   \   000056                ; Setup parameters for call to function MT_ZdoSimpleDescRequest
   \   000056   12....       LCALL   ??MT_ZdoSimpleDescRequest?relay
    211                break;
   \   000059   8039         SJMP    ??MT_ZdoCommandProcessing_17
    212          #endif
    213          
    214          #if defined ( ZDO_ACTIVEEP_REQUEST )
    215              case MT_ZDO_ACTIVE_EP_REQ:
    216                MT_ZdoActiveEpRequest(pBuf);
   \                     ??MT_ZdoCommandProcessing_5:
   \   00005B                ; Setup parameters for call to function MT_ZdoActiveEpRequest
   \   00005B   12....       LCALL   ??MT_ZdoActiveEpRequest?relay
    217                break;
   \   00005E   8034         SJMP    ??MT_ZdoCommandProcessing_17
    218          #endif
    219          
    220          #if defined ( ZDO_MATCH_REQUEST )
    221              case MT_ZDO_MATCH_DESC_REQ:
    222                MT_ZdoMatchDescRequest(pBuf);
   \                     ??MT_ZdoCommandProcessing_6:
   \   000060                ; Setup parameters for call to function MT_ZdoMatchDescRequest
   \   000060   12....       LCALL   ??MT_ZdoMatchDescRequest?relay
    223                break;
   \   000063   802F         SJMP    ??MT_ZdoCommandProcessing_17
    224          #endif
    225          
    226          #if defined ( ZDO_COMPLEXDESC_REQUEST )
    227              case MT_ZDO_COMPLEX_DESC_REQ:
    228                MT_ZdoComplexDescRequest(pBuf);
   \                     ??MT_ZdoCommandProcessing_7:
   \   000065                ; Setup parameters for call to function MT_ZdoComplexDescRequest
   \   000065   12....       LCALL   ??MT_ZdoComplexDescRequest?relay
    229                break;
   \   000068   802A         SJMP    ??MT_ZdoCommandProcessing_17
    230          #endif
    231          
    232          #if defined ( ZDO_USERDESC_REQUEST )
    233              case MT_ZDO_USER_DESC_REQ:
    234                MT_ZdoUserDescRequest(pBuf);
   \                     ??MT_ZdoCommandProcessing_8:
   \   00006A                ; Setup parameters for call to function MT_ZdoUserDescRequest
   \   00006A   12....       LCALL   ??MT_ZdoUserDescRequest?relay
    235                break;
   \   00006D   8025         SJMP    ??MT_ZdoCommandProcessing_17
    236          #endif
    237          
    238          #if defined ( ZDO_ENDDEVICE_ANNCE )
    239              case MT_ZDO_END_DEV_ANNCE:
    240                MT_ZdoEndDevAnnce(pBuf);
   \                     ??MT_ZdoCommandProcessing_9:
   \   00006F                ; Setup parameters for call to function MT_ZdoEndDevAnnce
   \   00006F   12....       LCALL   ??MT_ZdoEndDevAnnce?relay
    241                break;
   \   000072   8020         SJMP    ??MT_ZdoCommandProcessing_17
    242          #endif      
    243          
    244          #if defined ( ZDO_USERDESCSET_REQUEST )
    245              case MT_ZDO_USER_DESC_SET:
    246                MT_ZdoUserDescSet(pBuf);
   \                     ??MT_ZdoCommandProcessing_10:
   \   000074                ; Setup parameters for call to function MT_ZdoUserDescSet
   \   000074   12....       LCALL   ??MT_ZdoUserDescSet?relay
    247                break;
   \   000077   801B         SJMP    ??MT_ZdoCommandProcessing_17
    248          #endif
    249          
    250          #if defined ( ZDO_SERVERDISC_REQUEST )
    251              case MT_ZDO_SERVICE_DISC_REQ:
    252                MT_ZdoServiceDiscRequest(pBuf);
   \                     ??MT_ZdoCommandProcessing_11:
   \   000079                ; Setup parameters for call to function MT_ZdoServiceDiscRequest
   \   000079   12....       LCALL   ??MT_ZdoServiceDiscRequest?relay
    253                break;
   \   00007C   8016         SJMP    ??MT_ZdoCommandProcessing_17
    254          #endif
    255          
    256          #if defined ( ZDO_ENDDEVICEBIND_REQUEST )
    257              case MT_ZDO_END_DEV_BIND_REQ:
    258                MT_ZdoEndDevBindRequest(pBuf);
   \                     ??MT_ZdoCommandProcessing_12:
   \   00007E                ; Setup parameters for call to function MT_ZdoEndDevBindRequest
   \   00007E   12....       LCALL   ??MT_ZdoEndDevBindRequest?relay
    259                break;
   \   000081   8011         SJMP    ??MT_ZdoCommandProcessing_17
    260          #endif
    261          
    262          #if defined ( ZDO_BIND_UNBIND_REQUEST )
    263              case MT_ZDO_BIND_REQ:
    264                MT_ZdoBindRequest(pBuf);
   \                     ??MT_ZdoCommandProcessing_13:
   \   000083                ; Setup parameters for call to function MT_ZdoBindRequest
   \   000083   12....       LCALL   ??MT_ZdoBindRequest?relay
    265                break;
   \   000086   800C         SJMP    ??MT_ZdoCommandProcessing_17
    266          #endif
    267          
    268          #if defined ( ZDO_BIND_UNBIND_REQUEST )
    269              case MT_ZDO_UNBIND_REQ:
    270                MT_ZdoUnbindRequest(pBuf);
   \                     ??MT_ZdoCommandProcessing_14:
   \   000088                ; Setup parameters for call to function MT_ZdoUnbindRequest
   \   000088   12....       LCALL   ??MT_ZdoUnbindRequest?relay
    271                break;
   \   00008B   8007         SJMP    ??MT_ZdoCommandProcessing_17
    272          #endif
    273          
    274          #if defined ( ZDO_NETWORKSTART_REQUEST )
    275              case MT_ZDO_STARTUP_FROM_APP:
    276                MT_ZdoStartupFromApp(pBuf);
   \                     ??MT_ZdoCommandProcessing_15:
   \   00008D                ; Setup parameters for call to function MT_ZdoStartupFromApp
   \   00008D   12....       LCALL   ??MT_ZdoStartupFromApp?relay
    277                break;
   \   000090   8002         SJMP    ??MT_ZdoCommandProcessing_17
    278          #endif
    279          
    280          #if defined ( ZDO_MGMT_NWKDISC_REQUEST )
    281              case MT_ZDO_MGMT_NWKDISC_REQ:
    282                MT_ZdoMgmtNwkDiscRequest(pBuf);
    283                break;
    284          #endif
    285          
    286          #if defined ( ZDO_MGMT_LQI_REQUEST )
    287              case MT_ZDO_MGMT_LQI_REQ:
    288                MT_ZdoMgmtLqiRequest(pBuf);
    289                break;
    290          #endif
    291          
    292          #if defined ( ZDO_MGMT_RTG_REQUEST )
    293              case MT_ZDO_MGMT_RTG_REQ:
    294                MT_ZdoMgmtRtgRequest(pBuf);
    295                break;
    296          #endif
    297          
    298          #if defined ( ZDO_MGMT_BIND_REQUEST )
    299              case MT_ZDO_MGMT_BIND_REQ:
    300                MT_ZdoMgmtBindRequest(pBuf);
    301                break;
    302          #endif
    303          
    304          #if defined ( ZDO_MGMT_LEAVE_REQUEST )
    305              case MT_ZDO_MGMT_LEAVE_REQ:
    306                MT_ZdoMgmtLeaveRequest(pBuf);
    307                break;
    308          #endif
    309          
    310          #if defined ( ZDO_MGMT_JOINDIRECT_REQUEST )
    311              case MT_ZDO_MGMT_DIRECT_JOIN_REQ:
    312                MT_ZdoMgmtDirectJoinRequest(pBuf);
    313                break;
    314          #endif
    315          
    316          #if defined ( ZDO_MGMT_PERMIT_JOIN_REQUEST )
    317              case MT_ZDO_MGMT_PERMIT_JOIN_REQ:
    318                MT_ZdoMgmtPermitJoinRequest(pBuf);
    319                break;
    320          #endif
    321          
    322          #if defined ( ZDO_MGMT_NWKUPDATE_REQUEST )
    323              case MT_ZDO_MGMT_NWK_UPDATE_REQ:
    324                MT_ZdoMgmtNwkUpdateRequest(pBuf);
    325                break;
    326          #endif 
    327          
    328              default:
    329                status = MT_RPC_ERR_COMMAND_ID;
   \                     ??MT_ZdoCommandProcessing_16:
   \   000092   0E           INC     R6
   \   000093   0E           INC     R6
    330                break;
    331            }
    332          
    333            return status;
   \                     ??MT_ZdoCommandProcessing_17:
   \   000094   EE           MOV     A,R6
   \   000095   F9           MOV     R1,A
   \   000096   02....       LJMP    ??Subroutine34_0 & 0xFFFF
    334          }

   \                                 In  segment BANKED_CODE, align 1, keep-with-next
   \                     ??Subroutine34_0:
   \   000000   7F01         MOV     R7,#0x1
   \   000002   02....       LJMP    ?BANKED_LEAVE_XDATA
    335          
    336          /***************************************************************************************************
    337           * @fn      MT_ZdoNwkAddrReq
    338           *
    339           * @brief   Handle a nwk address request.
    340           *
    341           * @param   pData  - MT message data
    342           *
    343           * @return  void
    344           ***************************************************************************************************/

   \                                 In  segment BANKED_CODE, align 1, keep-with-next
    345          void MT_ZdoNWKAddressRequest(uint8 *pBuf)
   \                     MT_ZdoNWKAddressRequest:
    346          {
   \   000000   74F6         MOV     A,#-0xa
   \   000002   12....       LCALL   ?BANKED_ENTER_XDATA
   \   000005                ; Saved register size: 10
   \   000005                ; Auto size: 1
   \   000005   74FF         MOV     A,#-0x1
   \   000007   12....       LCALL   ?ALLOC_XSTACK8
    347            uint8 cmdId;
    348            uint8 retValue;
    349            uint8 reqType;
    350            uint8 startIndex;
    351            uint8 *pExtAddr;
    352          
    353            /* parse header */
    354            cmdId = pBuf[MT_RPC_POS_CMD1];
   \   00000A   8A82         MOV     DPL,R2
   \   00000C   8B83         MOV     DPH,R3
   \   00000E   A3           INC     DPTR
   \   00000F   A3           INC     DPTR
   \   000010   E0           MOVX    A,@DPTR
   \   000011   FE           MOV     R6,A
    355            pBuf += MT_RPC_FRAME_HDR_SZ;
    356          
    357            /* parse parameters */
    358            pExtAddr = pBuf;
   \   000012   12....       LCALL   ?Subroutine27 & 0xFFFF
    359            pBuf += Z_EXTADDR_LEN;
   \                     ??CrossCallReturnLabel_57:
   \   000015   E5..         MOV     A,?V0 + 0
   \   000017   2408         ADD     A,#0x8
   \   000019   FA           MOV     R2,A
   \   00001A   E5..         MOV     A,?V0 + 1
   \   00001C   12....       LCALL   ?Subroutine14 & 0xFFFF
    360          
    361            /* Request type */
    362            reqType = *pBuf++;
    363          
    364            /* Start index */
    365            startIndex = *pBuf;
    366          
    367            retValue = (uint8)ZDP_NwkAddrReq(pExtAddr, reqType, startIndex, 0);
   \                     ??CrossCallReturnLabel_38:
   \   00001F   AA..         MOV     R2,?V0 + 0
   \   000021   AB..         MOV     R3,?V0 + 1
   \   000023   12....       LCALL   ??ZDP_NwkAddrReq?relay
   \   000026   12....       LCALL   ?Subroutine19 & 0xFFFF
    368          
    369            /* Build and send back the response */
    370            MT_BuildAndSendZToolResponse(((uint8)MT_RPC_CMD_SRSP | (uint8)MT_RPC_SYS_ZDO), cmdId, 1, &retValue);
    371          }
   \                     ??CrossCallReturnLabel_61:
   \   000029   7401         MOV     A,#0x1
   \   00002B   12....       LCALL   ?DEALLOC_XSTACK8
   \   00002E   7F02         MOV     R7,#0x2
   \   000030   02....       LJMP    ?BANKED_LEAVE_XDATA

   \                                 In  segment BANKED_CODE, align 1, keep-with-next
   \                     ?Subroutine14:
   \   000000   12....       LCALL   ??Subroutine38_0 & 0xFFFF
   \                     ??CrossCallReturnLabel_80:
   \   000003   F9           MOV     R1,A
   \   000004   A3           INC     DPTR
   \   000005                ; Setup parameters for call to function ZDP_NwkAddrReq
   \   000005                ; Setup parameters for call to function ZDP_IEEEAddrReq
   \   000005   7D00         MOV     R5,#0x0
   \   000007   E0           MOVX    A,@DPTR
   \   000008   FC           MOV     R4,A
   \   000009   22           RET

   \                                 In  segment BANKED_CODE, align 1, keep-with-next
   \                     ?Subroutine19:
   \   000000   12....       LCALL   ?Subroutine28 & 0xFFFF
   \                     ??CrossCallReturnLabel_63:
   \   000003   7965         MOV     R1,#0x65
   \   000005   12....       LCALL   ??MT_BuildAndSendZToolResponse?relay
   \   000008   22           RET

   \                                 In  segment BANKED_CODE, align 1, keep-with-next
   \                     ??Subroutine38_0:
   \   000000   3400         ADDC    A,#0x0
   \   000002   FB           MOV     R3,A
   \   000003   8A82         MOV     DPL,R2
   \   000005   8B83         MOV     DPH,R3
   \   000007   E0           MOVX    A,@DPTR
   \   000008   22           RET

   \                                 In  segment BANKED_CODE, align 1, keep-with-next
   \                     ?Subroutine29:
   \   000000   E9           MOV     A,R1
   \   000001   85..82       MOV     DPL,?XSP + 0
   \   000004   85..83       MOV     DPH,?XSP + 1
   \   000007   F0           MOVX    @DPTR,A
   \   000008                ; Setup parameters for call to function MT_BuildAndSendZToolResponse
   \   000008                ; Setup parameters for call to function MT_BuildAndSendZToolResponse
   \   000008                ; Setup parameters for call to function MT_BuildAndSendZToolResponse
   \   000008                ; Setup parameters for call to function MT_BuildAndSendZToolResponse
   \   000008                ; Setup parameters for call to function MT_BuildAndSendZToolResponse
   \   000008                ; Setup parameters for call to function MT_BuildAndSendZToolResponse
   \   000008                ; Setup parameters for call to function MT_BuildAndSendZToolResponse
   \   000008                ; Setup parameters for call to function MT_BuildAndSendZToolResponse
   \   000008                ; Setup parameters for call to function MT_BuildAndSendZToolResponse
   \   000008                ; Setup parameters for call to function MT_BuildAndSendZToolResponse
   \   000008                ; Setup parameters for call to function MT_BuildAndSendZToolResponse
   \   000008                ; Setup parameters for call to function MT_BuildAndSendZToolResponse
   \   000008                ; Setup parameters for call to function MT_BuildAndSendZToolResponse
   \   000008                ; Setup parameters for call to function MT_BuildAndSendZToolResponse
   \   000008   AC82         MOV     R4,DPL
   \   00000A   AD83         MOV     R5,DPH
   \   00000C   7B01         MOV     R3,#0x1
   \   00000E   22           RET

   \                                 In  segment BANKED_CODE, align 1, keep-with-next
   \                     ?Subroutine27:
   \   000000   EA           MOV     A,R2
   \   000001   2403         ADD     A,#0x3
   \   000003   F5..         MOV     ?V0 + 0,A
   \   000005   EB           MOV     A,R3
   \   000006   3400         ADDC    A,#0x0
   \   000008   F5..         MOV     ?V0 + 1,A
   \   00000A   22           RET

   \                                 In  segment BANKED_CODE, align 1, keep-with-next
   \                     ?Subroutine28:
   \   000000   12....       LCALL   ?Subroutine29 & 0xFFFF
   \                     ??CrossCallReturnLabel_67:
   \   000003   EE           MOV     A,R6
   \   000004   FA           MOV     R2,A
   \   000005   22           RET
    372          
    373          /***************************************************************************************************
    374           * @fn      MT_ZdoIEEEAddrRequest
    375           *
    376           * @brief   Handle a IEEE address request.
    377           *
    378           * @param   pData  - MT message data
    379           *
    380           * @return  void
    381           ***************************************************************************************************/

   \                                 In  segment BANKED_CODE, align 1, keep-with-next
    382          void MT_ZdoIEEEAddrRequest (uint8 *pBuf)
   \                     MT_ZdoIEEEAddrRequest:
    383          {
   \   000000   74F7         MOV     A,#-0x9
   \   000002   12....       LCALL   ?BANKED_ENTER_XDATA
   \   000005                ; Saved register size: 9
   \   000005                ; Auto size: 1
   \   000005   74FF         MOV     A,#-0x1
   \   000007   12....       LCALL   ?ALLOC_XSTACK8
    384            uint8 cmdId;
    385            uint8 retValue;
    386            uint16 shortAddr;
    387            uint8 reqType;
    388            uint8 startIndex;
    389          
    390            /* parse header */
    391            cmdId = pBuf[MT_RPC_POS_CMD1];
   \   00000A   8A82         MOV     DPL,R2
   \   00000C   8B83         MOV     DPH,R3
   \   00000E   A3           INC     DPTR
   \   00000F   A3           INC     DPTR
   \   000010   E0           MOVX    A,@DPTR
   \   000011   F5..         MOV     ?V0 + 0,A
    392            pBuf += MT_RPC_FRAME_HDR_SZ;
   \   000013   EA           MOV     A,R2
   \   000014   2403         ADD     A,#0x3
   \   000016   0A           INC     R2
   \   000017   12....       LCALL   ?Subroutine8 & 0xFFFF
    393          
    394            /* Dev address */
    395            shortAddr = BUILD_UINT16(pBuf[0], pBuf[1]);
    396            pBuf += 2;
   \                     ??CrossCallReturnLabel_22:
   \   00001A   2402         ADD     A,#0x2
   \   00001C   0A           INC     R2
   \   00001D   0A           INC     R2
   \   00001E   EB           MOV     A,R3
   \   00001F   12....       LCALL   ?Subroutine14 & 0xFFFF
    397          
    398            /* request type */
    399            reqType = *pBuf++;
    400          
    401            /* start index */
    402            startIndex = *pBuf;
    403          
    404            retValue = (uint8)ZDP_IEEEAddrReq(shortAddr, reqType, startIndex, 0);
   \                     ??CrossCallReturnLabel_39:
   \   000022   EE           MOV     A,R6
   \   000023   FA           MOV     R2,A
   \   000024   EF           MOV     A,R7
   \   000025   FB           MOV     R3,A
   \   000026   12....       LCALL   ??ZDP_IEEEAddrReq?relay
   \   000029   12....       LCALL   ?Subroutine29 & 0xFFFF
    405          
    406            MT_BuildAndSendZToolResponse(((uint8)MT_RPC_CMD_SRSP | (uint8)MT_RPC_SYS_ZDO), cmdId, 1, &retValue);
   \                     ??CrossCallReturnLabel_65:
   \   00002C   AA..         MOV     R2,?V0 + 0
   \   00002E   02....       LJMP    ??Subroutine39_0 & 0xFFFF
    407          }

   \                                 In  segment BANKED_CODE, align 1, keep-with-next
   \                     ??Subroutine33_0:
   \   000000   12....       LCALL   ?DEALLOC_XSTACK8
   \   000003                REQUIRE ??Subroutine34_0
   \   000003                ; // Fall through to label ??Subroutine34_0

   \                                 In  segment BANKED_CODE, align 1, keep-with-next
   \                     ?Subroutine23:
   \   000000   EB           MOV     A,R3
   \   000001                REQUIRE ??Subroutine38_0
   \   000001                ; // Fall through to label ??Subroutine38_0

   \                                 In  segment BANKED_CODE, align 1, keep-with-next
   \                     ?Subroutine8:
   \   000000   0A           INC     R2
   \   000001   0A           INC     R2
   \   000002   12....       LCALL   ?Subroutine23 & 0xFFFF
   \                     ??CrossCallReturnLabel_79:
   \   000005   FC           MOV     R4,A
   \   000006   A3           INC     DPTR
   \   000007   E0           MOVX    A,@DPTR
   \   000008   F9           MOV     R1,A
   \   000009   EC           MOV     A,R4
   \   00000A   2400         ADD     A,#0x0
   \   00000C   FE           MOV     R6,A
   \   00000D   E4           CLR     A
   \   00000E   39           ADDC    A,R1
   \   00000F   FF           MOV     R7,A
   \   000010   EA           MOV     A,R2
   \   000011   22           RET

   \                                 In  segment BANKED_CODE, align 1, keep-with-next
   \                     ??Subroutine39_0:
   \   000000   7965         MOV     R1,#0x65
   \   000002   12....       LCALL   ??MT_BuildAndSendZToolResponse?relay
   \   000005   7401         MOV     A,#0x1
   \   000007   02....       LJMP    ??Subroutine33_0 & 0xFFFF
    408          
    409          /***************************************************************************************************
    410           * @fn      MT_ZdoNodeDescRequest
    411           *
    412           * @brief   Handle a Node Descriptor request.
    413           *
    414           * @param   pData  - MT message data
    415           *
    416           * @return  void
    417           ***************************************************************************************************/

   \                                 In  segment BANKED_CODE, align 1, keep-with-next
    418          void MT_ZdoNodeDescRequest (uint8 *pBuf)
   \                     MT_ZdoNodeDescRequest:
    419          {
   \   000000   74F7         MOV     A,#-0x9
   \   000002   12....       LCALL   ?BANKED_ENTER_XDATA
   \   000005                ; Saved register size: 9
   \   000005                ; Auto size: 10
   \   000005   74F6         MOV     A,#-0xa
   \   000007   12....       LCALL   ?ALLOC_XSTACK8
    420            uint8 cmdId;
    421            uint8 retValue;
    422            zAddrType_t destAddr;
    423            uint16 shortAddr;
    424          
    425            /* parse header */
    426            cmdId = pBuf[MT_RPC_POS_CMD1];
   \   00000A   12....       LCALL   ?Subroutine3 & 0xFFFF
    427            pBuf += MT_RPC_FRAME_HDR_SZ;
    428          
    429            /* Destination address */
    430            destAddr.addrMode = Addr16Bit;
   \                     ??CrossCallReturnLabel_0:
   \   00000D   12....       LCALL   ?XSTACK_DISP0_8
   \   000010   12....       LCALL   ?Subroutine4 & 0xFFFF
    431            destAddr.addr.shortAddr = BUILD_UINT16( pBuf[0], pBuf[1] );
   \                     ??CrossCallReturnLabel_7:
   \   000013   12....       LCALL   ?XSTACK_DISP0_8
   \   000016   12....       LCALL   ?Subroutine13 & 0xFFFF
    432            pBuf += 2;
    433          
    434            /* Network address of interest */
    435            shortAddr = BUILD_UINT16( pBuf[0], pBuf[1] );
    436            pBuf += 2;
    437          
    438            retValue = (uint8)ZDP_NodeDescReq( &destAddr, shortAddr, 0);
   \                     ??CrossCallReturnLabel_32:
   \   000019   12....       LCALL   ?PUSH_XSTACK_I_ONE
   \   00001C   7902         MOV     R1,#0x2
   \   00001E   12....       LCALL   ?Subroutine25 & 0xFFFF
   \                     ??CrossCallReturnLabel_52:
   \   000021   E9           MOV     A,R1
   \   000022   80..         SJMP    ??Subroutine31_0
    439          
    440            MT_BuildAndSendZToolResponse(((uint8)MT_RPC_CMD_SRSP | (uint8)MT_RPC_SYS_ZDO), cmdId, 1, &retValue);
    441          }

   \                                 In  segment BANKED_CODE, align 1, keep-with-next
   \                     ??Subroutine31_0:
   \   000000   12....       LCALL   ?XSTACK_DISP0_8
   \   000003   AA82         MOV     R2,DPL
   \   000005   AB83         MOV     R3,DPH
   \   000007   12....       LCALL   ??ZDP_NWKAddrOfInterestReq?relay
   \   00000A                REQUIRE ??Subroutine32_0
   \   00000A                ; // Fall through to label ??Subroutine32_0

   \                                 In  segment BANKED_CODE, align 1, keep-with-next
   \                     ??Subroutine32_0:
   \   000000   7401         MOV     A,#0x1
   \   000002   12....       LCALL   ?DEALLOC_XSTACK8
   \   000005   12....       LCALL   ?Subroutine19 & 0xFFFF
   \                     ??CrossCallReturnLabel_62:
   \   000008   740A         MOV     A,#0xa
   \   00000A                REQUIRE ??Subroutine33_0
   \   00000A                ; // Fall through to label ??Subroutine33_0

   \                                 In  segment BANKED_CODE, align 1, keep-with-next
   \                     ?Subroutine25:
   \   000000   8A82         MOV     DPL,R2
   \   000002   8B83         MOV     DPH,R3
   \   000004   E0           MOVX    A,@DPTR
   \   000005   FC           MOV     R4,A
   \   000006   A3           INC     DPTR
   \   000007   E0           MOVX    A,@DPTR
   \   000008   FB           MOV     R3,A
   \   000009   EC           MOV     A,R4
   \   00000A   2400         ADD     A,#0x0
   \   00000C   E4           CLR     A
   \   00000D   3B           ADDC    A,R3
   \   00000E   FD           MOV     R5,A
   \   00000F   22           RET

   \                                 In  segment BANKED_CODE, align 1, keep-with-next
   \                     ?Subroutine13:
   \   000000   12....       LCALL   ?Subroutine22 & 0xFFFF
   \                     ??CrossCallReturnLabel_68:
   \   000003                ; Setup parameters for call to function ZDP_NWKAddrOfInterestReq
   \   000003                ; Setup parameters for call to function ZDP_NWKAddrOfInterestReq
   \   000003                ; Setup parameters for call to function ZDP_SimpleDescReq
   \   000003                ; Setup parameters for call to function ZDP_NWKAddrOfInterestReq
   \   000003                ; Setup parameters for call to function ZDP_NWKAddrOfInterestReq
   \   000003                ; Setup parameters for call to function ZDP_NWKAddrOfInterestReq
   \   000003   75..00       MOV     ?V0 + 0,#0x0
   \   000006   78..         MOV     R0,#?V0 + 0
   \   000008   22           RET

   \                                 In  segment BANKED_CODE, align 1, keep-with-next
   \                     ?Subroutine22:
   \   000000   E8           MOV     A,R0
   \   000001   F0           MOVX    @DPTR,A
   \   000002   A3           INC     DPTR
   \   000003   E9           MOV     A,R1
   \   000004                REQUIRE ??Subroutine35_0
   \   000004                ; // Fall through to label ??Subroutine35_0

   \                                 In  segment BANKED_CODE, align 1, keep-with-next
   \                     ??Subroutine35_0:
   \   000000   F0           MOVX    @DPTR,A
   \   000001   EA           MOV     A,R2
   \   000002   2402         ADD     A,#0x2
   \   000004   0A           INC     R2
   \   000005   0A           INC     R2
   \   000006   EB           MOV     A,R3
   \   000007   3400         ADDC    A,#0x0
   \   000009   FB           MOV     R3,A
   \   00000A   22           RET

   \                                 In  segment BANKED_CODE, align 1, keep-with-next
   \                     ?Subroutine3:
   \   000000   12....       LCALL   ?Subroutine24 & 0xFFFF
   \                     ??CrossCallReturnLabel_50:
   \   000003   7409         MOV     A,#0x9
   \   000005   22           RET

   \                                 In  segment BANKED_CODE, align 1, keep-with-next
   \                     ?Subroutine4:
   \   000000   7402         MOV     A,#0x2
   \   000002   F0           MOVX    @DPTR,A
   \   000003   8A82         MOV     DPL,R2
   \   000005   8B83         MOV     DPH,R3
   \   000007   E0           MOVX    A,@DPTR
   \   000008   FC           MOV     R4,A
   \   000009   A3           INC     DPTR
   \   00000A   E0           MOVX    A,@DPTR
   \   00000B   F9           MOV     R1,A
   \   00000C   EC           MOV     A,R4
   \   00000D   F8           MOV     R0,A
   \   00000E   7401         MOV     A,#0x1
   \   000010   22           RET

   \                                 In  segment BANKED_CODE, align 1, keep-with-next
   \                     ?Subroutine24:
   \   000000   8A82         MOV     DPL,R2
   \   000002   8B83         MOV     DPH,R3
   \   000004   A3           INC     DPTR
   \   000005   A3           INC     DPTR
   \   000006   E0           MOVX    A,@DPTR
   \   000007   FE           MOV     R6,A
   \   000008   12....       LCALL   ?Subroutine30 & 0xFFFF
   \                     ??CrossCallReturnLabel_60:
   \   00000B   22           RET

   \                                 In  segment BANKED_CODE, align 1, keep-with-next
   \                     ?Subroutine30:
   \   000000   EA           MOV     A,R2
   \   000001   2403         ADD     A,#0x3
   \   000003   0A           INC     R2
   \   000004   0A           INC     R2
   \   000005   0A           INC     R2
   \   000006   EB           MOV     A,R3
   \   000007   3400         ADDC    A,#0x0
   \   000009   FB           MOV     R3,A
   \   00000A   22           RET
    442          
    443          /***************************************************************************************************
    444           * @fn      MT_ZdoPowerDescRequest
    445           *
    446           * @brief   Handle a Power Descriptor request.
    447           *
    448           * @param   pData  - MT message data
    449           *
    450           * @return  void
    451           ***************************************************************************************************/

   \                                 In  segment BANKED_CODE, align 1, keep-with-next
    452          void MT_ZdoPowerDescRequest(uint8 *pBuf)
   \                     MT_ZdoPowerDescRequest:
    453          {
   \   000000   74F7         MOV     A,#-0x9
   \   000002   12....       LCALL   ?BANKED_ENTER_XDATA
   \   000005                ; Saved register size: 9
   \   000005                ; Auto size: 10
   \   000005   74F6         MOV     A,#-0xa
   \   000007   12....       LCALL   ?ALLOC_XSTACK8
    454            uint8 cmdId;
    455            uint8 retValue;
    456            zAddrType_t destAddr;
    457            uint16 shortAddr;
    458          
    459            /* parse header */
    460            cmdId = pBuf[MT_RPC_POS_CMD1];
   \   00000A   12....       LCALL   ?Subroutine3 & 0xFFFF
    461            pBuf += MT_RPC_FRAME_HDR_SZ;
    462          
    463            /* Dev address */
    464            destAddr.addrMode = Addr16Bit;
   \                     ??CrossCallReturnLabel_1:
   \   00000D   12....       LCALL   ?XSTACK_DISP0_8
   \   000010   12....       LCALL   ?Subroutine4 & 0xFFFF
    465            destAddr.addr.shortAddr = BUILD_UINT16( pBuf[0], pBuf[1] );
   \                     ??CrossCallReturnLabel_8:
   \   000013   12....       LCALL   ?XSTACK_DISP0_8
   \   000016   12....       LCALL   ?Subroutine13 & 0xFFFF
    466            pBuf += 2;
    467          
    468            /* Network address of interest */
    469            shortAddr = BUILD_UINT16( pBuf[0], pBuf[1] );
    470            pBuf += 2;
    471          
    472            retValue = (uint8)ZDP_PowerDescReq( &destAddr, shortAddr, 0);
   \                     ??CrossCallReturnLabel_33:
   \   000019   12....       LCALL   ?PUSH_XSTACK_I_ONE
   \   00001C   7903         MOV     R1,#0x3
   \   00001E   80..         SJMP    ?Subroutine0
    473          
    474            MT_BuildAndSendZToolResponse(((uint8)MT_RPC_CMD_SRSP | (uint8)MT_RPC_SYS_ZDO), cmdId, 1, &retValue);
    475          }

   \                                 In  segment BANKED_CODE, align 1, keep-with-next
   \                     ?Subroutine0:
   \   000000   12....       LCALL   ?Subroutine9 & 0xFFFF
   \                     ??CrossCallReturnLabel_25:
   \   000003                REQUIRE ??Subroutine31_0
   \   000003                ; // Fall through to label ??Subroutine31_0

   \                                 In  segment BANKED_CODE, align 1, keep-with-next
   \                     ?Subroutine9:
   \   000000   12....       LCALL   ?Subroutine25 & 0xFFFF
   \                     ??CrossCallReturnLabel_53:
   \   000003   7402         MOV     A,#0x2
   \   000005   22           RET
    476          
    477          /***************************************************************************************************
    478           * @fn      MT_ZdoSimpleDescRequest
    479           *
    480           * @brief   Handle a Simple Descriptor request.
    481           *
    482           * @param   pBuf  - MT message data
    483           *
    484           * @return  void
    485           ***************************************************************************************************/

   \                                 In  segment BANKED_CODE, align 1, keep-with-next
    486          void MT_ZdoSimpleDescRequest(uint8 *pBuf)
   \                     MT_ZdoSimpleDescRequest:
    487          {
   \   000000   74F7         MOV     A,#-0x9
   \   000002   12....       LCALL   ?BANKED_ENTER_XDATA
   \   000005                ; Saved register size: 9
   \   000005                ; Auto size: 10
   \   000005   74F6         MOV     A,#-0xa
   \   000007   12....       LCALL   ?ALLOC_XSTACK8
    488            uint8 cmdId;
    489            uint8 retValue;
    490            uint8 epInt;
    491            zAddrType_t destAddr;
    492            uint16 shortAddr;
    493          
    494            /* parse header */
    495            cmdId = pBuf[MT_RPC_POS_CMD1];
   \   00000A   12....       LCALL   ?Subroutine3 & 0xFFFF
    496            pBuf += MT_RPC_FRAME_HDR_SZ;
    497          
    498            /* Dev address */
    499            destAddr.addrMode = Addr16Bit;
   \                     ??CrossCallReturnLabel_2:
   \   00000D   12....       LCALL   ?XSTACK_DISP0_8
   \   000010   12....       LCALL   ?Subroutine4 & 0xFFFF
    500            destAddr.addr.shortAddr = BUILD_UINT16( pBuf[0], pBuf[1] );
   \                     ??CrossCallReturnLabel_9:
   \   000013   12....       LCALL   ?XSTACK_DISP0_8
   \   000016   12....       LCALL   ?Subroutine13 & 0xFFFF
    501            pBuf += 2;
    502          
    503            /* Network address of interest */
    504            shortAddr = BUILD_UINT16( pBuf[0], pBuf[1] );
    505            pBuf += 2;
    506          
    507            /* endpoint/interface */
    508            epInt = *pBuf++;
    509          
    510            retValue = (uint8)ZDP_SimpleDescReq( &destAddr, shortAddr, epInt, 0);
   \                     ??CrossCallReturnLabel_34:
   \   000019   12....       LCALL   ?PUSH_XSTACK_I_ONE
   \   00001C   8A82         MOV     DPL,R2
   \   00001E   8B83         MOV     DPH,R3
   \   000020   A3           INC     DPTR
   \   000021   A3           INC     DPTR
   \   000022   E0           MOVX    A,@DPTR
   \   000023   F9           MOV     R1,A
   \   000024   12....       LCALL   ?Subroutine9 & 0xFFFF
   \                     ??CrossCallReturnLabel_24:
   \   000027   12....       LCALL   ?XSTACK_DISP0_8
   \   00002A   AA82         MOV     R2,DPL
   \   00002C   AB83         MOV     R3,DPH
   \   00002E   12....       LCALL   ??ZDP_SimpleDescReq?relay
   \   000031   80..         SJMP    ??Subroutine32_0
    511          
    512            MT_BuildAndSendZToolResponse(((uint8)MT_RPC_CMD_SRSP | (uint8)MT_RPC_SYS_ZDO), cmdId, 1, &retValue);
    513          }
    514          
    515          /***************************************************************************************************
    516           * @fn      MT_ZdoSimpleDescRequest
    517           *
    518           * @brief   Handle a Active EP request.
    519           *
    520           * @param   pBuf  - MT message data
    521           *
    522           * @return  void
    523           ***************************************************************************************************/

   \                                 In  segment BANKED_CODE, align 1, keep-with-next
    524          void MT_ZdoActiveEpRequest(uint8 *pBuf)
   \                     MT_ZdoActiveEpRequest:
    525          {
   \   000000   74F7         MOV     A,#-0x9
   \   000002   12....       LCALL   ?BANKED_ENTER_XDATA
   \   000005                ; Saved register size: 9
   \   000005                ; Auto size: 10
   \   000005   74F6         MOV     A,#-0xa
   \   000007   12....       LCALL   ?ALLOC_XSTACK8
    526            uint8 cmdId;
    527            uint8 retValue;
    528            zAddrType_t destAddr;
    529            uint16 shortAddr;
    530          
    531            /* parse header */
    532            cmdId = pBuf[MT_RPC_POS_CMD1];
   \   00000A   12....       LCALL   ?Subroutine3 & 0xFFFF
    533            pBuf += MT_RPC_FRAME_HDR_SZ;
    534          
    535            /* Dev address */
    536            destAddr.addrMode = Addr16Bit;
   \                     ??CrossCallReturnLabel_3:
   \   00000D   12....       LCALL   ?XSTACK_DISP0_8
   \   000010   12....       LCALL   ?Subroutine4 & 0xFFFF
    537            destAddr.addr.shortAddr = BUILD_UINT16( pBuf[0], pBuf[1] );
   \                     ??CrossCallReturnLabel_10:
   \   000013   12....       LCALL   ?XSTACK_DISP0_8
   \   000016   12....       LCALL   ?Subroutine13 & 0xFFFF
    538            pBuf += 2;
    539          
    540            /* Network address of interest */
    541            shortAddr = BUILD_UINT16( pBuf[0], pBuf[1] );
    542            pBuf += 2;
    543          
    544            retValue = (uint8)ZDP_ActiveEPReq( &destAddr, shortAddr, 0);
   \                     ??CrossCallReturnLabel_35:
   \   000019   12....       LCALL   ?PUSH_XSTACK_I_ONE
   \   00001C   7905         MOV     R1,#0x5
   \   00001E   80..         SJMP    ?Subroutine0
    545          
    546            MT_BuildAndSendZToolResponse(((uint8)MT_RPC_CMD_SRSP | (uint8)MT_RPC_SYS_ZDO), cmdId, 1, &retValue);
    547          }
    548          
    549          /***************************************************************************************************
    550           * @fn      MT_ZdoMatchDescRequest
    551           *
    552           * @brief   Handle a Match Descriptor request.
    553           *
    554           * @param   pBuf  - MT message data
    555           *
    556           * @return  void
    557           ***************************************************************************************************/

   \                                 In  segment BANKED_CODE, align 1, keep-with-next
    558          void MT_ZdoMatchDescRequest(uint8 *pBuf)
   \                     MT_ZdoMatchDescRequest:
    559          {
   \   000000   74F2         MOV     A,#-0xe
   \   000002   12....       LCALL   ?BANKED_ENTER_XDATA
   \   000005                ; Saved register size: 14
   \   000005                ; Auto size: 74
   \   000005   74B6         MOV     A,#-0x4a
   \   000007   12....       LCALL   ?ALLOC_XSTACK8
    560            uint8 cmdId;
    561            uint8 retValue = 0;
   \   00000A   85..82       MOV     DPL,?XSP + 0
   \   00000D   85..83       MOV     DPH,?XSP + 1
   \   000010   E4           CLR     A
   \   000011   F0           MOVX    @DPTR,A
    562            uint8 i, numInClusters, numOutClusters;
    563            uint16 profileId;
    564            zAddrType_t destAddr;
    565            uint16 shortAddr;
    566            uint16 inClusters[MTZDO_MAX_MATCH_CLUSTERS], outClusters[MTZDO_MAX_MATCH_CLUSTERS];
    567          
    568            /* parse header */
    569            cmdId = pBuf[MT_RPC_POS_CMD1];
   \   000012   12....       LCALL   ?Subroutine3 & 0xFFFF
    570            pBuf += MT_RPC_FRAME_HDR_SZ;
    571          
    572            /* Dev address */
    573            destAddr.addrMode = Addr16Bit;
   \                     ??CrossCallReturnLabel_4:
   \   000015   12....       LCALL   ?XSTACK_DISP0_8
   \   000018   12....       LCALL   ?Subroutine4 & 0xFFFF
    574            destAddr.addr.shortAddr = BUILD_UINT16( pBuf[0], pBuf[1] );
   \                     ??CrossCallReturnLabel_11:
   \   00001B   12....       LCALL   ?XSTACK_DISP0_8
   \   00001E   E8           MOV     A,R0
   \   00001F   F0           MOVX    @DPTR,A
   \   000020   A3           INC     DPTR
   \   000021   E9           MOV     A,R1
   \   000022   F0           MOVX    @DPTR,A
    575            pBuf += 2;
   \   000023   12....       LCALL   ??Subroutine36_0 & 0xFFFF
    576          
    577            /* Network address of interest */
    578            shortAddr = BUILD_UINT16( pBuf[0], pBuf[1] );
   \                     ??CrossCallReturnLabel_74:
   \   000026   FC           MOV     R4,A
   \   000027   A3           INC     DPTR
   \   000028   E0           MOVX    A,@DPTR
   \   000029   F9           MOV     R1,A
   \   00002A   EC           MOV     A,R4
   \   00002B   2400         ADD     A,#0x0
   \   00002D   12....       LCALL   ?Subroutine15 & 0xFFFF
    579            pBuf += 2;
    580          
    581            /* Profile ID */
    582            profileId = BUILD_UINT16( pBuf[0], pBuf[1] );
   \                     ??CrossCallReturnLabel_72:
   \   000030   F5..         MOV     ?V0 + 0,A
   \   000032   A3           INC     DPTR
   \   000033   E0           MOVX    A,@DPTR
   \   000034   F8           MOV     R0,A
   \   000035   E4           CLR     A
   \   000036   C8           XCH     A,R0
   \   000037   F9           MOV     R1,A
   \   000038   E5..         MOV     A,?V0 + 0
   \   00003A   2400         ADD     A,#0x0
   \   00003C   E4           CLR     A
   \   00003D   39           ADDC    A,R1
   \   00003E   F5..         MOV     ?V0 + 1,A
    583            pBuf += 2;
   \   000040   12....       LCALL   ??Subroutine36_0 & 0xFFFF
    584          
    585            /* NumInClusters */
    586            numInClusters = *pBuf++;
   \                     ??CrossCallReturnLabel_75:
   \   000043   F9           MOV     R1,A
   \   000044   A3           INC     DPTR
   \   000045   AA82         MOV     R2,DPL
   \   000047   AB83         MOV     R3,DPH
    587            if ( numInClusters <= MTZDO_MAX_MATCH_CLUSTERS )
   \   000049   C3           CLR     C
   \   00004A   9411         SUBB    A,#0x11
   \   00004C   502B         JNC     ??MT_ZdoMatchDescRequest_0
    588            {
    589              /* IN clusters */
    590              for ( i = 0; i < numInClusters; i++ )
   \                     ??MT_ZdoMatchDescRequest_1:
   \   00004E   E8           MOV     A,R0
   \   00004F   C3           CLR     C
   \   000050   99           SUBB    A,R1
   \   000051   502F         JNC     ??MT_ZdoMatchDescRequest_2
    591              {
    592                inClusters[i] = BUILD_UINT16( pBuf[0], pBuf[1]);
   \   000053   8A82         MOV     DPL,R2
   \   000055   8B83         MOV     DPH,R3
   \   000057   E0           MOVX    A,@DPTR
   \   000058   F5..         MOV     ?V0 + 4,A
   \   00005A   A3           INC     DPTR
   \   00005B   E0           MOVX    A,@DPTR
   \   00005C   F5..         MOV     ?V0 + 3,A
   \   00005E   E5..         MOV     A,?V0 + 4
   \   000060   2400         ADD     A,#0x0
   \   000062   E4           CLR     A
   \   000063   35..         ADDC    A,?V0 + 3
   \   000065   F5..         MOV     ?V0 + 5,A
   \   000067   E8           MOV     A,R0
   \   000068   33           RLC     A
   \   000069   F5..         MOV     ?V0 + 2,A
   \   00006B   E4           CLR     A
   \   00006C   33           RLC     A
   \   00006D   F5..         MOV     ?V0 + 3,A
   \   00006F   742A         MOV     A,#0x2a
   \   000071   12....       LCALL   ?XSTACK_DISP0_8
   \   000074   12....       LCALL   ?Subroutine21 & 0xFFFF
    593                pBuf += 2;
    594              }
    595            }
   \                     ??CrossCallReturnLabel_48:
   \   000077   80D5         SJMP    ??MT_ZdoMatchDescRequest_1
    596            else
    597            {
    598              retValue = ZDP_INVALID_REQTYPE;
   \                     ??MT_ZdoMatchDescRequest_0:
   \   000079   85..82       MOV     DPL,?XSP + 0
   \   00007C   85..83       MOV     DPH,?XSP + 1
   \   00007F   7480         MOV     A,#-0x80
   \   000081   F0           MOVX    @DPTR,A
    599            }
    600          
    601            /* NumOutClusters */
    602            numOutClusters = *pBuf++;
   \                     ??MT_ZdoMatchDescRequest_2:
   \   000082   8A82         MOV     DPL,R2
   \   000084   8B83         MOV     DPH,R3
   \   000086   E0           MOVX    A,@DPTR
   \   000087   FF           MOV     R7,A
   \   000088   A3           INC     DPTR
   \   000089   AA82         MOV     R2,DPL
   \   00008B   AB83         MOV     R3,DPH
    603            if ( numOutClusters <= MTZDO_MAX_MATCH_CLUSTERS )
   \   00008D   C3           CLR     C
   \   00008E   9411         SUBB    A,#0x11
   \   000090   502A         JNC     ??MT_ZdoMatchDescRequest_3
    604            {
    605              /* OUT Clusters */
    606              for ( i = 0; i < numOutClusters; i++ )
   \   000092   7800         MOV     R0,#0x0
   \                     ??MT_ZdoMatchDescRequest_4:
   \   000094   E8           MOV     A,R0
   \   000095   C3           CLR     C
   \   000096   9F           SUBB    A,R7
   \   000097   502D         JNC     ??MT_ZdoMatchDescRequest_5
    607              {
    608                outClusters[i] = BUILD_UINT16( pBuf[0], pBuf[1]);
   \   000099   8A82         MOV     DPL,R2
   \   00009B   8B83         MOV     DPH,R3
   \   00009D   E0           MOVX    A,@DPTR
   \   00009E   F5..         MOV     ?V0 + 2,A
   \   0000A0   A3           INC     DPTR
   \   0000A1   E0           MOVX    A,@DPTR
   \   0000A2   F5..         MOV     ?V0 + 5,A
   \   0000A4   E5..         MOV     A,?V0 + 2
   \   0000A6   2400         ADD     A,#0x0
   \   0000A8   F5..         MOV     ?V0 + 4,A
   \   0000AA   E8           MOV     A,R0
   \   0000AB   33           RLC     A
   \   0000AC   F5..         MOV     ?V0 + 2,A
   \   0000AE   E4           CLR     A
   \   0000AF   33           RLC     A
   \   0000B0   F5..         MOV     ?V0 + 3,A
   \   0000B2   740A         MOV     A,#0xa
   \   0000B4   12....       LCALL   ?XSTACK_DISP0_8
   \   0000B7   12....       LCALL   ?Subroutine21 & 0xFFFF
    609                pBuf += 2;
    610              }
    611            }
   \                     ??CrossCallReturnLabel_49:
   \   0000BA   80D8         SJMP    ??MT_ZdoMatchDescRequest_4
    612            else
    613            {
    614              retValue = ZDP_INVALID_REQTYPE;
   \                     ??MT_ZdoMatchDescRequest_3:
   \   0000BC   85..82       MOV     DPL,?XSP + 0
   \   0000BF   85..83       MOV     DPH,?XSP + 1
   \   0000C2   7480         MOV     A,#-0x80
   \   0000C4   8056         SJMP    ??MT_ZdoMatchDescRequest_6
    615            }
    616          
    617            if ( retValue == 0 )
   \                     ??MT_ZdoMatchDescRequest_5:
   \   0000C6   85..82       MOV     DPL,?XSP + 0
   \   0000C9   85..83       MOV     DPH,?XSP + 1
   \   0000CC   E0           MOVX    A,@DPTR
   \   0000CD   704E         JNZ     ??MT_ZdoMatchDescRequest_7
    618            {
    619              retValue = (uint8)ZDP_MatchDescReq( &destAddr, shortAddr, profileId, numInClusters,
    620                                                 inClusters, numOutClusters, outClusters, 0);
   \   0000CF                ; Setup parameters for call to function ZDP_MatchDescReq
   \   0000CF   75..00       MOV     ?V0 + 2,#0x0
   \   0000D2   78..         MOV     R0,#?V0 + 2
   \   0000D4   12....       LCALL   ?PUSH_XSTACK_I_ONE
   \   0000D7   740B         MOV     A,#0xb
   \   0000D9   12....       LCALL   ?XSTACK_DISP0_8
   \   0000DC   8582..       MOV     ?V0 + 2,DPL
   \   0000DF   8583..       MOV     ?V0 + 3,DPH
   \   0000E2   78..         MOV     R0,#?V0 + 2
   \   0000E4   12....       LCALL   ?PUSH_XSTACK_I_TWO
   \   0000E7   EF           MOV     A,R7
   \   0000E8   F5..         MOV     ?V0 + 2,A
   \   0000EA   78..         MOV     R0,#?V0 + 2
   \   0000EC   12....       LCALL   ?PUSH_XSTACK_I_ONE
   \   0000EF   742E         MOV     A,#0x2e
   \   0000F1   12....       LCALL   ?XSTACK_DISP0_8
   \   0000F4   8582..       MOV     ?V0 + 2,DPL
   \   0000F7   8583..       MOV     ?V0 + 3,DPH
   \   0000FA   78..         MOV     R0,#?V0 + 2
   \   0000FC   12....       LCALL   ?PUSH_XSTACK_I_TWO
   \   0000FF   78..         MOV     R0,#?V0 + 0
   \   000101   12....       LCALL   ?PUSH_XSTACK_I_TWO
   \   000104   7409         MOV     A,#0x9
   \   000106   12....       LCALL   ?XSTACK_DISP0_8
   \   000109   AA82         MOV     R2,DPL
   \   00010B   AB83         MOV     R3,DPH
   \   00010D   12....       LCALL   ??ZDP_MatchDescReq?relay
   \   000110   7408         MOV     A,#0x8
   \   000112   12....       LCALL   ?DEALLOC_XSTACK8
   \   000115   E9           MOV     A,R1
   \   000116   85..82       MOV     DPL,?XSP + 0
   \   000119   85..83       MOV     DPH,?XSP + 1
   \                     ??MT_ZdoMatchDescRequest_6:
   \   00011C   F0           MOVX    @DPTR,A
    621            }
    622          
    623            MT_BuildAndSendZToolResponse(((uint8)MT_RPC_CMD_SRSP | (uint8)MT_RPC_SYS_ZDO), cmdId, 1, &retValue);
   \                     ??MT_ZdoMatchDescRequest_7:
   \   00011D                ; Setup parameters for call to function MT_BuildAndSendZToolResponse
   \   00011D   AC82         MOV     R4,DPL
   \   00011F   AD83         MOV     R5,DPH
   \   000121   7B01         MOV     R3,#0x1
   \   000123   EE           MOV     A,R6
   \   000124   FA           MOV     R2,A
   \   000125   7965         MOV     R1,#0x65
   \   000127   12....       LCALL   ??MT_BuildAndSendZToolResponse?relay
    624          }
   \   00012A   744A         MOV     A,#0x4a
   \   00012C   12....       LCALL   ?DEALLOC_XSTACK8
   \   00012F   7F06         MOV     R7,#0x6
   \   000131   02....       LJMP    ?BANKED_LEAVE_XDATA

   \                                 In  segment BANKED_CODE, align 1, keep-with-next
   \                     ?Subroutine21:
   \   000000   E582         MOV     A,DPL
   \   000002   25..         ADD     A,?V0 + 2
   \   000004   F582         MOV     DPL,A
   \   000006   E583         MOV     A,DPH
   \   000008   35..         ADDC    A,?V0 + 3
   \   00000A   F583         MOV     DPH,A
   \   00000C   E5..         MOV     A,?V0 + 4
   \   00000E   F0           MOVX    @DPTR,A
   \   00000F   A3           INC     DPTR
   \   000010   E5..         MOV     A,?V0 + 5
   \   000012   12....       LCALL   ??Subroutine35_0 & 0xFFFF
   \                     ??CrossCallReturnLabel_70:
   \   000015   08           INC     R0
   \   000016   22           RET

   \                                 In  segment BANKED_CODE, align 1, keep-with-next
   \                     ?Subroutine15:
   \   000000   E4           CLR     A
   \   000001   39           ADDC    A,R1
   \   000002   FD           MOV     R5,A
   \   000003                REQUIRE ??Subroutine36_0
   \   000003                ; // Fall through to label ??Subroutine36_0

   \                                 In  segment BANKED_CODE, align 1, keep-with-next
   \                     ??Subroutine36_0:
   \   000000   EA           MOV     A,R2
   \   000001   2402         ADD     A,#0x2
   \   000003   0A           INC     R2
   \   000004   0A           INC     R2
   \   000005                REQUIRE ??Subroutine37_0
   \   000005                ; // Fall through to label ??Subroutine37_0

   \                                 In  segment BANKED_CODE, align 1, keep-with-next
   \                     ??Subroutine37_0:
   \   000000   12....       LCALL   ?Subroutine23 & 0xFFFF
   \                     ??CrossCallReturnLabel_78:
   \   000003   22           RET
    625          
    626          /***************************************************************************************************
    627           * @fn      MT_ZdoComplexDescRequest
    628           *
    629           * @brief   Handle a Complex Descriptor request.
    630           *
    631           * @param   pBuf  - MT message data
    632           *
    633           * @return  void
    634           ***************************************************************************************************/

   \                                 In  segment BANKED_CODE, align 1, keep-with-next
    635          void MT_ZdoComplexDescRequest(uint8 *pBuf)
   \                     MT_ZdoComplexDescRequest:
    636          {
   \   000000   74F7         MOV     A,#-0x9
   \   000002   12....       LCALL   ?BANKED_ENTER_XDATA
   \   000005                ; Saved register size: 9
   \   000005                ; Auto size: 10
   \   000005   74F6         MOV     A,#-0xa
   \   000007   12....       LCALL   ?ALLOC_XSTACK8
    637            uint8 cmdId;
    638            uint8 retValue;
    639            zAddrType_t destAddr;
    640            uint16 shortAddr;
    641          
    642            /* parse header */
    643            cmdId = pBuf[MT_RPC_POS_CMD1];
   \   00000A   12....       LCALL   ?Subroutine3 & 0xFFFF
    644            pBuf += MT_RPC_FRAME_HDR_SZ;
    645          
    646            /* Dev address */
    647            destAddr.addrMode = Addr16Bit;
   \                     ??CrossCallReturnLabel_5:
   \   00000D   12....       LCALL   ?XSTACK_DISP0_8
   \   000010   12....       LCALL   ?Subroutine4 & 0xFFFF
    648            destAddr.addr.shortAddr = BUILD_UINT16( pBuf[0], pBuf[1] );
   \                     ??CrossCallReturnLabel_12:
   \   000013   12....       LCALL   ?XSTACK_DISP0_8
   \   000016   12....       LCALL   ?Subroutine13 & 0xFFFF
    649            pBuf += 2;
    650          
    651            /* Network address of interest */
    652            shortAddr = BUILD_UINT16( pBuf[0], pBuf[1] );
    653            pBuf += 2;
    654          
    655            retValue = (uint8)ZDP_ComplexDescReq( &destAddr, shortAddr, 0);
   \                     ??CrossCallReturnLabel_36:
   \   000019   12....       LCALL   ?PUSH_XSTACK_I_ONE
   \   00001C   7910         MOV     R1,#0x10
   \   00001E   02....       LJMP    ?Subroutine0 & 0xFFFF
    656          
    657            MT_BuildAndSendZToolResponse(((uint8)MT_RPC_CMD_SRSP | (uint8)MT_RPC_SYS_ZDO), cmdId, 1, &retValue);
    658          }
    659          
    660          /***************************************************************************************************
    661           * @fn      MT_ZdoUserDescRequest
    662           *
    663           * @brief   Handle a User Descriptor request.
    664           *
    665           * @param   pBuf  - MT message data
    666           *
    667           * @return  void
    668           ***************************************************************************************************/

   \                                 In  segment BANKED_CODE, align 1, keep-with-next
    669          void MT_ZdoUserDescRequest(uint8 *pBuf)
   \                     MT_ZdoUserDescRequest:
    670          {
   \   000000   74F7         MOV     A,#-0x9
   \   000002   12....       LCALL   ?BANKED_ENTER_XDATA
   \   000005                ; Saved register size: 9
   \   000005                ; Auto size: 10
   \   000005   74F6         MOV     A,#-0xa
   \   000007   12....       LCALL   ?ALLOC_XSTACK8
    671            uint8 cmdId;
    672            uint8 retValue;
    673            zAddrType_t destAddr;
    674            uint16 shortAddr;
    675          
    676            /* parse header */
    677            cmdId = pBuf[MT_RPC_POS_CMD1];
   \   00000A   12....       LCALL   ?Subroutine3 & 0xFFFF
    678            pBuf += MT_RPC_FRAME_HDR_SZ;
    679          
    680            /* Dev address */
    681            destAddr.addrMode = Addr16Bit;
   \                     ??CrossCallReturnLabel_6:
   \   00000D   12....       LCALL   ?XSTACK_DISP0_8
   \   000010   12....       LCALL   ?Subroutine4 & 0xFFFF
    682            destAddr.addr.shortAddr = BUILD_UINT16( pBuf[0], pBuf[1]);
   \                     ??CrossCallReturnLabel_13:
   \   000013   12....       LCALL   ?XSTACK_DISP0_8
   \   000016   12....       LCALL   ?Subroutine13 & 0xFFFF
    683            pBuf += 2;
    684          
    685            /* Network address of interest */
    686            shortAddr = BUILD_UINT16( pBuf[0], pBuf[1]);
    687            pBuf += 2;
    688          
    689            retValue = (uint8)ZDP_UserDescReq( &destAddr, shortAddr, 0);
   \                     ??CrossCallReturnLabel_37:
   \   000019   12....       LCALL   ?PUSH_XSTACK_I_ONE
   \   00001C   7911         MOV     R1,#0x11
   \   00001E   02....       LJMP    ?Subroutine0 & 0xFFFF
    690          
    691            MT_BuildAndSendZToolResponse(((uint8)MT_RPC_CMD_SRSP | (uint8)MT_RPC_SYS_ZDO), cmdId, 1, &retValue);
    692          }
    693          
    694          /***************************************************************************************************
    695           * @fn      MT_ZdoEndDevAnnce
    696           *
    697           * @brief   Handle a End Device Announce Descriptor request.
    698           *
    699           * @param   pBuf  - MT message data
    700           *
    701           * @return  void
    702           ***************************************************************************************************/

   \                                 In  segment BANKED_CODE, align 1, keep-with-next
    703          void MT_ZdoEndDevAnnce(uint8 *pBuf)
   \                     MT_ZdoEndDevAnnce:
    704          {
   \   000000   74F7         MOV     A,#-0x9
   \   000002   12....       LCALL   ?BANKED_ENTER_XDATA
   \   000005                ; Saved register size: 9
   \   000005                ; Auto size: 1
   \   000005   74FF         MOV     A,#-0x1
   \   000007   12....       LCALL   ?ALLOC_XSTACK8
   \   00000A   EA           MOV     A,R2
   \   00000B   FC           MOV     R4,A
   \   00000C   EB           MOV     A,R3
   \   00000D   FD           MOV     R5,A
    705            uint8 cmdId;
    706            uint8 retValue;
    707            uint16 shortAddr;
    708            uint8 *pIEEEAddr;
    709          
    710            /* parse header */
    711            cmdId = pBuf[MT_RPC_POS_CMD1];
   \   00000E   8C82         MOV     DPL,R4
   \   000010   8D83         MOV     DPH,R5
   \   000012   A3           INC     DPTR
   \   000013   A3           INC     DPTR
   \   000014   E0           MOVX    A,@DPTR
   \   000015   FE           MOV     R6,A
    712            pBuf += MT_RPC_FRAME_HDR_SZ;
   \   000016   EC           MOV     A,R4
   \   000017   2403         ADD     A,#0x3
   \   000019   0C           INC     R4
   \   00001A   0C           INC     R4
   \   00001B   0C           INC     R4
   \   00001C   ED           MOV     A,R5
   \   00001D   3400         ADDC    A,#0x0
   \   00001F   FD           MOV     R5,A
    713          
    714            /* network address */
    715            shortAddr = BUILD_UINT16( pBuf[0], pBuf[1] );
   \   000020   8C82         MOV     DPL,R4
   \   000022   8D83         MOV     DPH,R5
   \   000024   E0           MOVX    A,@DPTR
   \   000025   FA           MOV     R2,A
   \   000026   A3           INC     DPTR
   \   000027   E0           MOVX    A,@DPTR
   \   000028   F8           MOV     R0,A
   \   000029   E4           CLR     A
   \   00002A   C8           XCH     A,R0
   \   00002B   F9           MOV     R1,A
   \   00002C   EA           MOV     A,R2
   \   00002D   2400         ADD     A,#0x0
   \   00002F   E4           CLR     A
   \   000030   39           ADDC    A,R1
   \   000031   FB           MOV     R3,A
    716            pBuf += 2;
   \   000032   EC           MOV     A,R4
   \   000033   2402         ADD     A,#0x2
   \   000035   0C           INC     R4
   \   000036   0C           INC     R4
   \   000037   ED           MOV     A,R5
   \   000038   3400         ADDC    A,#0x0
   \   00003A   FD           MOV     R5,A
    717          
    718            /* extended address */
    719            pIEEEAddr = pBuf;
    720            pBuf += Z_EXTADDR_LEN;
    721          
    722            retValue = (uint8)ZDP_DeviceAnnce( shortAddr, pIEEEAddr, *pBuf, 0);
   \   00003B                ; Setup parameters for call to function ZDP_DeviceAnnce
   \   00003B   88..         MOV     ?V0 + 0,R0
   \   00003D   78..         MOV     R0,#?V0 + 0
   \   00003F   12....       LCALL   ?PUSH_XSTACK_I_ONE
   \   000042   8C82         MOV     DPL,R4
   \   000044   8D83         MOV     DPH,R5
   \   000046   A3           INC     DPTR
   \   000047   A3           INC     DPTR
   \   000048   A3           INC     DPTR
   \   000049   A3           INC     DPTR
   \   00004A   A3           INC     DPTR
   \   00004B   A3           INC     DPTR
   \   00004C   A3           INC     DPTR
   \   00004D   A3           INC     DPTR
   \   00004E   E0           MOVX    A,@DPTR
   \   00004F   F9           MOV     R1,A
   \   000050   12....       LCALL   ??ZDP_DeviceAnnce?relay
   \   000053   7401         MOV     A,#0x1
   \   000055   12....       LCALL   ?DEALLOC_XSTACK8
   \   000058   02....       LJMP    ?Subroutine2 & 0xFFFF
    723          
    724            MT_BuildAndSendZToolResponse(((uint8)MT_RPC_CMD_SRSP | (uint8)MT_RPC_SYS_ZDO), cmdId, 1, &retValue);
    725          }

   \                                 In  segment BANKED_CODE, align 1, keep-with-next
   \                     ?Subroutine2:
   \   000000   12....       LCALL   ?Subroutine28 & 0xFFFF
   \                     ??CrossCallReturnLabel_64:
   \   000003                REQUIRE ??Subroutine39_0
   \   000003                ; // Fall through to label ??Subroutine39_0
    726          
    727          /***************************************************************************************************
    728           * @fn      MT_ZdoUserDescSet
    729           *
    730           * @brief   Handle a User Descriptor Set.
    731           *
    732           * @param   pBuf  - MT message data
    733           *
    734           * @return  void
    735           ***************************************************************************************************/

   \                                 In  segment BANKED_CODE, align 1, keep-with-next
    736          void MT_ZdoUserDescSet(uint8 *pBuf)
   \                     MT_ZdoUserDescSet:
    737          {
   \   000000   74F4         MOV     A,#-0xc
   \   000002   12....       LCALL   ?BANKED_ENTER_XDATA
   \   000005                ; Saved register size: 12
   \   000005                ; Auto size: 27
   \   000005   74E5         MOV     A,#-0x1b
   \   000007   12....       LCALL   ?ALLOC_XSTACK8
    738            uint8 cmdId;
    739            uint8 retValue;
    740            zAddrType_t destAddr;
    741            uint16 shortAddr;
    742            UserDescriptorFormat_t userDesc;
    743          
    744            /* parse header */
    745            cmdId = pBuf[MT_RPC_POS_CMD1];
   \   00000A   8A82         MOV     DPL,R2
   \   00000C   8B83         MOV     DPH,R3
   \   00000E   A3           INC     DPTR
   \   00000F   A3           INC     DPTR
   \   000010   E0           MOVX    A,@DPTR
   \   000011   F5..         MOV     ?V0 + 3,A
    746            pBuf += MT_RPC_FRAME_HDR_SZ;
   \   000013   12....       LCALL   ?Subroutine16 & 0xFFFF
    747          
    748            /* Dev address */
    749            destAddr.addrMode = Addr16Bit;
   \                     ??CrossCallReturnLabel_40:
   \   000016   12....       LCALL   ?XSTACK_DISP0_8
   \   000019   12....       LCALL   ?Subroutine4 & 0xFFFF
    750            destAddr.addr.shortAddr = BUILD_UINT16( pBuf[0], pBuf[1] );
   \                     ??CrossCallReturnLabel_14:
   \   00001C   12....       LCALL   ?XSTACK_DISP0_8
   \   00001F   12....       LCALL   ?Subroutine22 & 0xFFFF
    751            pBuf += 2;
    752          
    753            /* Network address of interest */
    754            shortAddr = BUILD_UINT16( pBuf[0], pBuf[1] );
   \                     ??CrossCallReturnLabel_69:
   \   000022   8A82         MOV     DPL,R2
   \   000024   8B83         MOV     DPH,R3
   \   000026   12....       LCALL   ?Subroutine10 & 0xFFFF
   \                     ??CrossCallReturnLabel_26:
   \   000029   FE           MOV     R6,A
   \   00002A   E4           CLR     A
   \   00002B   39           ADDC    A,R1
   \   00002C   FF           MOV     R7,A
    755            pBuf += 2;
   \   00002D   12....       LCALL   ??Subroutine36_0 & 0xFFFF
    756          
    757            /* User descriptor */
    758            userDesc.len = *pBuf++;
   \                     ??CrossCallReturnLabel_76:
   \   000030   C0E0         PUSH    A
   \   000032   740A         MOV     A,#0xa
   \   000034   12....       LCALL   ?XSTACK_DISP0_8
   \   000037   D0E0         POP     A
   \   000039   F0           MOVX    @DPTR,A
   \   00003A   8A82         MOV     DPL,R2
   \   00003C   8B83         MOV     DPH,R3
   \   00003E   A3           INC     DPTR
   \   00003F   AA82         MOV     R2,DPL
   \   000041   AB83         MOV     R3,DPH
    759            osal_memcpy( userDesc.desc, pBuf, userDesc.len );
   \   000043                ; Setup parameters for call to function osal_memcpy
   \   000043   8A..         MOV     ?V0 + 0,R2
   \   000045   8B..         MOV     ?V0 + 1,R3
   \   000047   88..         MOV     ?V0 + 2,R0
   \   000049   78..         MOV     R0,#?V0 + 0
   \   00004B   12....       LCALL   ?PUSH_XSTACK_I_THREE
   \   00004E   740D         MOV     A,#0xd
   \   000050   12....       LCALL   ?XSTACK_DISP0_8
   \   000053   E0           MOVX    A,@DPTR
   \   000054   FC           MOV     R4,A
   \   000055   7D00         MOV     R5,#0x0
   \   000057   740E         MOV     A,#0xe
   \   000059   12....       LCALL   ?XSTACK_DISP0_8
   \   00005C   AA82         MOV     R2,DPL
   \   00005E   AB83         MOV     R3,DPH
   \   000060   12....       LCALL   ??osal_memcpy?relay
   \   000063   7403         MOV     A,#0x3
   \   000065   12....       LCALL   ?DEALLOC_XSTACK8
    760            pBuf += 16;
    761          
    762            retValue = (uint8)ZDP_UserDescSet( &destAddr, shortAddr, &userDesc, 0);
   \   000068                ; Setup parameters for call to function ZDP_UserDescSet
   \   000068   740A         MOV     A,#0xa
   \   00006A   12....       LCALL   ?XSTACK_DISP0_8
   \   00006D   8582..       MOV     ?V0 + 0,DPL
   \   000070   8583..       MOV     ?V0 + 1,DPH
   \   000073   78..         MOV     R0,#?V0 + 0
   \   000075   12....       LCALL   ?PUSH_XSTACK_I_TWO
   \   000078   7900         MOV     R1,#0x0
   \   00007A   EE           MOV     A,R6
   \   00007B   FC           MOV     R4,A
   \   00007C   EF           MOV     A,R7
   \   00007D   FD           MOV     R5,A
   \   00007E   7403         MOV     A,#0x3
   \   000080   12....       LCALL   ?XSTACK_DISP0_8
   \   000083   AA82         MOV     R2,DPL
   \   000085   AB83         MOV     R3,DPH
   \   000087   12....       LCALL   ??ZDP_UserDescSet?relay
   \   00008A   7402         MOV     A,#0x2
   \   00008C   12....       LCALL   ?DEALLOC_XSTACK8
   \   00008F   12....       LCALL   ?Subroutine20 & 0xFFFF
    763          
    764            MT_BuildAndSendZToolResponse(((uint8)MT_RPC_CMD_SRSP | (uint8)MT_RPC_SYS_ZDO), cmdId, 1, &retValue);
    765          }
   \                     ??CrossCallReturnLabel_46:
   \   000092   741B         MOV     A,#0x1b
   \   000094   12....       LCALL   ?DEALLOC_XSTACK8
   \   000097   7F04         MOV     R7,#0x4
   \   000099   02....       LJMP    ?BANKED_LEAVE_XDATA

   \                                 In  segment BANKED_CODE, align 1, keep-with-next
   \                     ?Subroutine16:
   \   000000   12....       LCALL   ?Subroutine30 & 0xFFFF
   \                     ??CrossCallReturnLabel_59:
   \   000003   7409         MOV     A,#0x9
   \   000005   22           RET

   \                                 In  segment BANKED_CODE, align 1, keep-with-next
   \                     ?Subroutine10:
   \   000000   E0           MOVX    A,@DPTR
   \   000001   FC           MOV     R4,A
   \   000002   A3           INC     DPTR
   \   000003   E0           MOVX    A,@DPTR
   \   000004   F8           MOV     R0,A
   \   000005   E4           CLR     A
   \   000006   C8           XCH     A,R0
   \   000007   F9           MOV     R1,A
   \   000008   EC           MOV     A,R4
   \   000009   2400         ADD     A,#0x0
   \   00000B   22           RET

   \                                 In  segment BANKED_CODE, align 1, keep-with-next
   \                     ?Subroutine20:
   \   000000   12....       LCALL   ?Subroutine29 & 0xFFFF
   \                     ??CrossCallReturnLabel_66:
   \   000003   AA..         MOV     R2,?V0 + 3
   \   000005   7965         MOV     R1,#0x65
   \   000007   12....       LCALL   ??MT_BuildAndSendZToolResponse?relay
   \   00000A   22           RET
    766          
    767          /***************************************************************************************************
    768           * @fn      MT_ZdoServiceDiscRequest
    769           *
    770           * @brief   Handle a Server Discovery request.
    771           *
    772           * @param   pBuf  - MT message data
    773           *
    774           * @return  void
    775           ***************************************************************************************************/

   \                                 In  segment BANKED_CODE, align 1, keep-with-next
    776          void MT_ZdoServiceDiscRequest(uint8 *pBuf)
   \                     MT_ZdoServiceDiscRequest:
    777          {
   \   000000   74F7         MOV     A,#-0x9
   \   000002   12....       LCALL   ?BANKED_ENTER_XDATA
   \   000005                ; Saved register size: 9
   \   000005                ; Auto size: 1
   \   000005   74FF         MOV     A,#-0x1
   \   000007   12....       LCALL   ?ALLOC_XSTACK8
    778            uint8 cmdId;
    779            uint8 retValue;
    780            uint16 serviceMask;
    781          
    782            /* parse header */
    783            cmdId = pBuf[MT_RPC_POS_CMD1];
   \   00000A   12....       LCALL   ?Subroutine24 & 0xFFFF
    784            pBuf += MT_RPC_FRAME_HDR_SZ;
    785          
    786            /* Service Mask */
    787            serviceMask = BUILD_UINT16( pBuf[0], pBuf[1]);
    788            pBuf += 2;
    789          
    790            retValue = (uint8)ZDP_ServerDiscReq( serviceMask, 0);
   \                     ??CrossCallReturnLabel_51:
   \   00000D                ; Setup parameters for call to function ZDP_ServerDiscReq
   \   00000D   7900         MOV     R1,#0x0
   \   00000F   8A82         MOV     DPL,R2
   \   000011   8B83         MOV     DPH,R3
   \   000013   E0           MOVX    A,@DPTR
   \   000014   FC           MOV     R4,A
   \   000015   A3           INC     DPTR
   \   000016   E0           MOVX    A,@DPTR
   \   000017   FB           MOV     R3,A
   \   000018   EC           MOV     A,R4
   \   000019   FA           MOV     R2,A
   \   00001A   12....       LCALL   ??ZDP_ServerDiscReq?relay
   \   00001D   02....       LJMP    ?Subroutine2 & 0xFFFF
    791          
    792            MT_BuildAndSendZToolResponse(((uint8)MT_RPC_CMD_SRSP | (uint8)MT_RPC_SYS_ZDO), cmdId, 1, &retValue);
    793          }
    794          
    795          /***************************************************************************************************
    796           * @fn      MT_ZdoEndDevBindRequest
    797           *
    798           * @brief   Handle a End Device Bind request.
    799           *
    800           * @param   pBuf  - MT message data
    801           *
    802           * @return  void
    803           ***************************************************************************************************/

   \                                 In  segment BANKED_CODE, align 1, keep-with-next
    804          void MT_ZdoEndDevBindRequest(uint8 *pBuf)
   \                     MT_ZdoEndDevBindRequest:
    805          {
   \   000000   74F1         MOV     A,#-0xf
   \   000002   12....       LCALL   ?BANKED_ENTER_XDATA
   \   000005                ; Saved register size: 15
   \   000005                ; Auto size: 70
   \   000005   74BA         MOV     A,#-0x46
   \   000007   12....       LCALL   ?ALLOC_XSTACK8
    806            uint8 cmdId;
    807            uint8 retValue = 0;
   \   00000A   85..82       MOV     DPL,?XSP + 0
   \   00000D   85..83       MOV     DPH,?XSP + 1
   \   000010   E4           CLR     A
   \   000011   F0           MOVX    @DPTR,A
    808            uint8 i, epInt, numInClusters, numOutClusters;
    809            zAddrType_t destAddr;
    810            uint16 shortAddr;
    811            uint16 profileID, inClusters[MTZDO_MAX_ED_BIND_CLUSTERS], outClusters[MTZDO_MAX_ED_BIND_CLUSTERS];
    812          
    813            /* parse header */
    814            cmdId = pBuf[MT_RPC_POS_CMD1];
   \   000012   8A82         MOV     DPL,R2
   \   000014   8B83         MOV     DPH,R3
   \   000016   A3           INC     DPTR
   \   000017   A3           INC     DPTR
   \   000018   E0           MOVX    A,@DPTR
   \   000019   F5..         MOV     ?V0 + 6,A
    815            pBuf += MT_RPC_FRAME_HDR_SZ;
   \   00001B   12....       LCALL   ?Subroutine16 & 0xFFFF
    816          
    817            /* Dev address */
    818            destAddr.addrMode = Addr16Bit;
   \                     ??CrossCallReturnLabel_41:
   \   00001E   12....       LCALL   ?XSTACK_DISP0_8
   \   000021   12....       LCALL   ?Subroutine4 & 0xFFFF
    819            destAddr.addr.shortAddr = BUILD_UINT16( pBuf[0], pBuf[1] );
   \                     ??CrossCallReturnLabel_15:
   \   000024   12....       LCALL   ?XSTACK_DISP0_8
   \   000027   E8           MOV     A,R0
   \   000028   F0           MOVX    @DPTR,A
   \   000029   A3           INC     DPTR
   \   00002A   E9           MOV     A,R1
   \   00002B   F0           MOVX    @DPTR,A
    820            pBuf += 2;
   \   00002C   EA           MOV     A,R2
   \   00002D   2402         ADD     A,#0x2
   \   00002F   12....       LCALL   ?Subroutine8 & 0xFFFF
    821          
    822            /* Local coordinator of the binding */
    823            shortAddr = BUILD_UINT16( pBuf[0], pBuf[1] );
    824            pBuf += 2;
    825            
    826            /* For now, skip past the extended address */
    827            pBuf += Z_EXTADDR_LEN;
   \                     ??CrossCallReturnLabel_23:
   \   000032   240A         ADD     A,#0xa
   \   000034   FA           MOV     R2,A
   \   000035   12....       LCALL   ??Subroutine37_0 & 0xFFFF
    828          
    829            /* Endpoint */
    830            epInt = *pBuf++;
   \                     ??CrossCallReturnLabel_77:
   \   000038   F5..         MOV     ?V0 + 2,A
   \   00003A   A3           INC     DPTR
   \   00003B   AA82         MOV     R2,DPL
   \   00003D   AB83         MOV     R3,DPH
    831          
    832            /* Profile ID */
    833            profileID = BUILD_UINT16( pBuf[0], pBuf[1] );
   \   00003F   12....       LCALL   ?Subroutine10 & 0xFFFF
   \                     ??CrossCallReturnLabel_27:
   \   000042   12....       LCALL   ?Subroutine15 & 0xFFFF
    834            pBuf += 2;
    835          
    836            /* NumInClusters */
    837            numInClusters = *pBuf++;
   \                     ??CrossCallReturnLabel_73:
   \   000045   F5..         MOV     ?V0 + 3,A
   \   000047   A3           INC     DPTR
   \   000048   0A           INC     R2
   \   000049   AB83         MOV     R3,DPH
    838            if ( numInClusters <= MTZDO_MAX_ED_BIND_CLUSTERS )
   \   00004B   C3           CLR     C
   \   00004C   9410         SUBB    A,#0x10
   \   00004E   5016         JNC     ??MT_ZdoEndDevBindRequest_0
    839            {
    840              for ( i = 0; i < numInClusters; i++ )
   \   000050   88..         MOV     ?V0 + 5,R0
   \                     ??MT_ZdoEndDevBindRequest_1:
   \   000052   E5..         MOV     A,?V0 + 5
   \   000054   C3           CLR     C
   \   000055   95..         SUBB    A,?V0 + 3
   \   000057   5016         JNC     ??MT_ZdoEndDevBindRequest_2
    841              {
    842                inClusters[i] = BUILD_UINT16(pBuf[0], pBuf[1]);
   \   000059   12....       LCALL   ?Subroutine6 & 0xFFFF
    843                pBuf += 2;
    844              }
    845            }
   \                     ??CrossCallReturnLabel_18:
   \   00005C   7428         MOV     A,#0x28
   \   00005E   12....       LCALL   ?XSTACK_DISP0_8
   \   000061   12....       LCALL   ?Subroutine17 & 0xFFFF
   \                     ??CrossCallReturnLabel_42:
   \   000064   80EC         SJMP    ??MT_ZdoEndDevBindRequest_1
    846            else
    847              retValue = ZDP_INVALID_REQTYPE;
   \                     ??MT_ZdoEndDevBindRequest_0:
   \   000066   85..82       MOV     DPL,?XSP + 0
   \   000069   85..83       MOV     DPH,?XSP + 1
   \   00006C   7480         MOV     A,#-0x80
   \   00006E   F0           MOVX    @DPTR,A
    848          
    849            /* NumOutClusters */
    850            numOutClusters = *pBuf++;
   \                     ??MT_ZdoEndDevBindRequest_2:
   \   00006F   8A82         MOV     DPL,R2
   \   000071   8B83         MOV     DPH,R3
   \   000073   E0           MOVX    A,@DPTR
   \   000074   F5..         MOV     ?V0 + 4,A
   \   000076   A3           INC     DPTR
   \   000077   AA82         MOV     R2,DPL
   \   000079   AB83         MOV     R3,DPH
    851            if ( numOutClusters <= MTZDO_MAX_ED_BIND_CLUSTERS )
   \   00007B   C3           CLR     C
   \   00007C   9410         SUBB    A,#0x10
   \   00007E   5017         JNC     ??MT_ZdoEndDevBindRequest_3
    852            {
    853              for ( i = 0; i < numOutClusters; i++ )
   \   000080   75..00       MOV     ?V0 + 5,#0x0
   \                     ??MT_ZdoEndDevBindRequest_4:
   \   000083   E5..         MOV     A,?V0 + 5
   \   000085   C3           CLR     C
   \   000086   95..         SUBB    A,?V0 + 4
   \   000088   5017         JNC     ??MT_ZdoEndDevBindRequest_5
    854              {
    855                outClusters[i] = BUILD_UINT16(pBuf[0], pBuf[1]);
   \   00008A   12....       LCALL   ?Subroutine6 & 0xFFFF
    856                pBuf += 2;
    857              }
    858            }
   \                     ??CrossCallReturnLabel_19:
   \   00008D   740A         MOV     A,#0xa
   \   00008F   12....       LCALL   ?XSTACK_DISP0_8
   \   000092   12....       LCALL   ?Subroutine17 & 0xFFFF
   \                     ??CrossCallReturnLabel_43:
   \   000095   80EC         SJMP    ??MT_ZdoEndDevBindRequest_4
    859            else
    860              retValue = ZDP_INVALID_REQTYPE;
   \                     ??MT_ZdoEndDevBindRequest_3:
   \   000097   85..82       MOV     DPL,?XSP + 0
   \   00009A   85..83       MOV     DPH,?XSP + 1
   \   00009D   7480         MOV     A,#-0x80
   \   00009F   806A         SJMP    ??MT_ZdoEndDevBindRequest_6
    861            
    862            if ( retValue == 0 )
   \                     ??MT_ZdoEndDevBindRequest_5:
   \   0000A1   85..82       MOV     DPL,?XSP + 0
   \   0000A4   85..83       MOV     DPH,?XSP + 1
   \   0000A7   E0           MOVX    A,@DPTR
   \   0000A8   7062         JNZ     ??MT_ZdoEndDevBindRequest_7
    863            {
    864              retValue = (uint8)ZDP_EndDeviceBindReq( &destAddr, shortAddr, epInt, profileID,
    865                                                    numInClusters, inClusters, numOutClusters, outClusters, 0);
   \   0000AA                ; Setup parameters for call to function ZDP_EndDeviceBindReq
   \   0000AA   75..00       MOV     ?V0 + 0,#0x0
   \   0000AD   78..         MOV     R0,#?V0 + 0
   \   0000AF   12....       LCALL   ?PUSH_XSTACK_I_ONE
   \   0000B2   740B         MOV     A,#0xb
   \   0000B4   12....       LCALL   ?XSTACK_DISP0_8
   \   0000B7   8582..       MOV     ?V0 + 0,DPL
   \   0000BA   8583..       MOV     ?V0 + 1,DPH
   \   0000BD   78..         MOV     R0,#?V0 + 0
   \   0000BF   12....       LCALL   ?PUSH_XSTACK_I_TWO
   \   0000C2   E5..         MOV     A,?V0 + 4
   \   0000C4   F5..         MOV     ?V0 + 0,A
   \   0000C6   78..         MOV     R0,#?V0 + 0
   \   0000C8   12....       LCALL   ?PUSH_XSTACK_I_ONE
   \   0000CB   742C         MOV     A,#0x2c
   \   0000CD   12....       LCALL   ?XSTACK_DISP0_8
   \   0000D0   8582..       MOV     ?V0 + 0,DPL
   \   0000D3   8583..       MOV     ?V0 + 1,DPH
   \   0000D6   78..         MOV     R0,#?V0 + 0
   \   0000D8   12....       LCALL   ?PUSH_XSTACK_I_TWO
   \   0000DB   E5..         MOV     A,?V0 + 3
   \   0000DD   F5..         MOV     ?V0 + 0,A
   \   0000DF   78..         MOV     R0,#?V0 + 0
   \   0000E1   12....       LCALL   ?PUSH_XSTACK_I_ONE
   \   0000E4   8C..         MOV     ?V0 + 0,R4
   \   0000E6   8D..         MOV     ?V0 + 1,R5
   \   0000E8   78..         MOV     R0,#?V0 + 0
   \   0000EA   12....       LCALL   ?PUSH_XSTACK_I_TWO
   \   0000ED   A9..         MOV     R1,?V0 + 2
   \   0000EF   EE           MOV     A,R6
   \   0000F0   FC           MOV     R4,A
   \   0000F1   EF           MOV     A,R7
   \   0000F2   FD           MOV     R5,A
   \   0000F3   740A         MOV     A,#0xa
   \   0000F5   12....       LCALL   ?XSTACK_DISP0_8
   \   0000F8   AA82         MOV     R2,DPL
   \   0000FA   AB83         MOV     R3,DPH
   \   0000FC   12....       LCALL   ??ZDP_EndDeviceBindReq?relay
   \   0000FF   7409         MOV     A,#0x9
   \   000101   12....       LCALL   ?DEALLOC_XSTACK8
   \   000104   E9           MOV     A,R1
   \   000105   85..82       MOV     DPL,?XSP + 0
   \   000108   85..83       MOV     DPH,?XSP + 1
   \                     ??MT_ZdoEndDevBindRequest_6:
   \   00010B   F0           MOVX    @DPTR,A
    866            }
    867          
    868            MT_BuildAndSendZToolResponse(((uint8)MT_RPC_CMD_SRSP | (uint8)MT_RPC_SYS_ZDO), cmdId, 1, &retValue);
   \                     ??MT_ZdoEndDevBindRequest_7:
   \   00010C                ; Setup parameters for call to function MT_BuildAndSendZToolResponse
   \   00010C   AC82         MOV     R4,DPL
   \   00010E   AD83         MOV     R5,DPH
   \   000110   7B01         MOV     R3,#0x1
   \   000112   AA..         MOV     R2,?V0 + 6
   \   000114   7965         MOV     R1,#0x65
   \   000116   12....       LCALL   ??MT_BuildAndSendZToolResponse?relay
    869          }
   \   000119   7446         MOV     A,#0x46
   \   00011B   12....       LCALL   ?DEALLOC_XSTACK8
   \   00011E   7F07         MOV     R7,#0x7
   \   000120   02....       LJMP    ?BANKED_LEAVE_XDATA

   \                                 In  segment BANKED_CODE, align 1, keep-with-next
   \                     ?Subroutine17:
   \   000000   E582         MOV     A,DPL
   \   000002   28           ADD     A,R0
   \   000003   F582         MOV     DPL,A
   \   000005   E583         MOV     A,DPH
   \   000007   39           ADDC    A,R1
   \   000008   F583         MOV     DPH,A
   \   00000A   E5..         MOV     A,?V0 + 0
   \   00000C   F0           MOVX    @DPTR,A
   \   00000D   A3           INC     DPTR
   \   00000E   E5..         MOV     A,?V0 + 1
   \   000010   12....       LCALL   ??Subroutine35_0 & 0xFFFF
   \                     ??CrossCallReturnLabel_71:
   \   000013   05..         INC     ?V0 + 5
   \   000015   22           RET

   \                                 In  segment BANKED_CODE, align 1, keep-with-next
   \                     ?Subroutine6:
   \   000000   8A82         MOV     DPL,R2
   \   000002   8B83         MOV     DPH,R3
   \   000004   E0           MOVX    A,@DPTR
   \   000005   F8           MOV     R0,A
   \   000006   A3           INC     DPTR
   \   000007   E0           MOVX    A,@DPTR
   \   000008   F5..         MOV     ?V0 + 1,A
   \   00000A   E8           MOV     A,R0
   \   00000B   2400         ADD     A,#0x0
   \   00000D   F5..         MOV     ?V0 + 0,A
   \   00000F   E5..         MOV     A,?V0 + 5
   \   000011   33           RLC     A
   \   000012   F8           MOV     R0,A
   \   000013   E4           CLR     A
   \   000014   33           RLC     A
   \   000015   F9           MOV     R1,A
   \   000016   22           RET
    870          
    871          /***************************************************************************************************
    872           * @fn      MT_ZdoBindRequest
    873           *
    874           * @brief   Handle a Bind request.
    875           *
    876           * @param   pBuf  - MT message data
    877           *
    878           * @return  void
    879           ***************************************************************************************************/

   \                                 In  segment BANKED_CODE, align 1, keep-with-next
    880          void MT_ZdoBindRequest(uint8 *pBuf)
   \                     MT_ZdoBindRequest:
    881          {
   \   000000   74F0         MOV     A,#-0x10
   \   000002   12....       LCALL   ?BANKED_ENTER_XDATA
   \   000005                ; Saved register size: 16
   \   000005                ; Auto size: 19
   \   000005   74ED         MOV     A,#-0x13
   \   000007   12....       LCALL   ?ALLOC_XSTACK8
    882            uint8 cmdId;
    883            uint8 retValue;
    884            zAddrType_t destAddr, devAddr;
    885            uint8 *pSrcAddr, *ptr;
    886            uint8 srcEPInt, dstEPInt;
    887            uint16 clusterID;
    888          
    889            /* parse header */
    890            cmdId = pBuf[MT_RPC_POS_CMD1];
   \   00000A   12....       LCALL   ?Subroutine7 & 0xFFFF
    891            pBuf += MT_RPC_FRAME_HDR_SZ;
    892          
    893            /* Dev address */
    894            destAddr.addrMode = Addr16Bit;
   \                     ??CrossCallReturnLabel_20:
   \   00000D   12....       LCALL   ?XSTACK_DISP0_8
   \   000010   12....       LCALL   ?Subroutine11 & 0xFFFF
    895            destAddr.addr.shortAddr = BUILD_UINT16( pBuf[0], pBuf[1] );
   \                     ??CrossCallReturnLabel_28:
   \   000013   12....       LCALL   ?XSTACK_DISP0_8
   \   000016   12....       LCALL   ?Subroutine5 & 0xFFFF
    896            pBuf += 2;
    897          
    898            /* SrcAddress */
    899            pSrcAddr = pBuf;
    900            pBuf += Z_EXTADDR_LEN;
    901          
    902            /* SrcEPInt */
    903            srcEPInt = *pBuf++;
    904          
    905            /* ClusterID */
    906            clusterID = BUILD_UINT16( pBuf[0], pBuf[1]);
    907            pBuf += 2;
    908          
    909            /* Destination Address mode */
    910            devAddr.addrMode = *pBuf++;
   \                     ??CrossCallReturnLabel_16:
   \   000019   12....       LCALL   ?XSTACK_DISP0_8
   \   00001C   12....       LCALL   ?Subroutine18 & 0xFFFF
    911          
    912            /* Destination Address */
    913            if ( devAddr.addrMode == Addr64Bit )
   \                     ??CrossCallReturnLabel_44:
   \   00001F   7012         JNZ     ??MT_ZdoBindRequest_0
    914            {
    915              ptr = pBuf;
    916              osal_cpyExtAddr( devAddr.addr.extAddr, ptr );
   \   000021                ; Setup parameters for call to function sAddrExtCpy
   \   000021   AC..         MOV     R4,?V0 + 0
   \   000023   AD..         MOV     R5,?V0 + 1
   \   000025   7401         MOV     A,#0x1
   \   000027   12....       LCALL   ?XSTACK_DISP0_8
   \   00002A   AA82         MOV     R2,DPL
   \   00002C   AB83         MOV     R3,DPH
   \   00002E   12....       LCALL   ??sAddrExtCpy?relay
   \   000031   800B         SJMP    ??MT_ZdoBindRequest_1
    917            }
    918            else
    919            {
    920              devAddr.addr.shortAddr = BUILD_UINT16( pBuf[0], pBuf[1] );
   \                     ??MT_ZdoBindRequest_0:
   \   000033   12....       LCALL   ?Subroutine12 & 0xFFFF
    921            }
   \                     ??CrossCallReturnLabel_30:
   \   000036   12....       LCALL   ?XSTACK_DISP0_8
   \   000039   E8           MOV     A,R0
   \   00003A   F0           MOVX    @DPTR,A
   \   00003B   A3           INC     DPTR
   \   00003C   E9           MOV     A,R1
   \   00003D   F0           MOVX    @DPTR,A
    922            /* The short address occupies LSB two bytes */
    923            pBuf += Z_EXTADDR_LEN;
    924          
    925            /* DstEPInt */
    926            dstEPInt = *pBuf;
    927          
    928            retValue = (uint8)ZDP_BindReq( &destAddr, pSrcAddr, srcEPInt, clusterID, &devAddr, dstEPInt, 0);
   \                     ??MT_ZdoBindRequest_1:
   \   00003E                ; Setup parameters for call to function ZDP_BindUnbindReq
   \   00003E   75..00       MOV     ?V0 + 4,#0x0
   \   000041   78..         MOV     R0,#?V0 + 4
   \   000043   12....       LCALL   ?PUSH_XSTACK_I_ONE
   \   000046   85..82       MOV     DPL,?V0 + 0
   \   000049   85..83       MOV     DPH,?V0 + 1
   \   00004C   A3           INC     DPTR
   \   00004D   A3           INC     DPTR
   \   00004E   A3           INC     DPTR
   \   00004F   A3           INC     DPTR
   \   000050   A3           INC     DPTR
   \   000051   A3           INC     DPTR
   \   000052   A3           INC     DPTR
   \   000053   A3           INC     DPTR
   \   000054   E0           MOVX    A,@DPTR
   \   000055   F5..         MOV     ?V0 + 0,A
   \   000057   78..         MOV     R0,#?V0 + 0
   \   000059   12....       LCALL   ?PUSH_XSTACK_I_ONE
   \   00005C   7403         MOV     A,#0x3
   \   00005E   12....       LCALL   ?XSTACK_DISP0_8
   \   000061   8582..       MOV     ?V0 + 0,DPL
   \   000064   8583..       MOV     ?V0 + 1,DPH
   \   000067   78..         MOV     R0,#?V0 + 0
   \   000069   12....       LCALL   ?PUSH_XSTACK_I_TWO
   \   00006C   8E..         MOV     ?V0 + 0,R6
   \   00006E   8F..         MOV     ?V0 + 1,R7
   \   000070   78..         MOV     R0,#?V0 + 0
   \   000072   12....       LCALL   ?PUSH_XSTACK_I_TWO
   \   000075   78..         MOV     R0,#?V0 + 6
   \   000077   12....       LCALL   ?PUSH_XSTACK_I_TWO
   \   00007A   A9..         MOV     R1,?V0 + 2
   \   00007C   7412         MOV     A,#0x12
   \   00007E   12....       LCALL   ?XSTACK_DISP0_8
   \   000081   AC82         MOV     R4,DPL
   \   000083   AD83         MOV     R5,DPH
   \   000085   7A21         MOV     R2,#0x21
   \   000087                REQUIRE ?Subroutine1
   \   000087                ; // Fall through to label ?Subroutine1
    929          
    930            MT_BuildAndSendZToolResponse(((uint8)MT_RPC_CMD_SRSP | (uint8)MT_RPC_SYS_ZDO), cmdId, 1, &retValue);
    931          }

   \                                 In  segment BANKED_CODE, align 1, keep-with-next
   \                     ?Subroutine1:
   \   000000   7B00         MOV     R3,#0x0
   \   000002   12....       LCALL   ??ZDP_BindUnbindReq?relay
   \   000005   7408         MOV     A,#0x8
   \   000007   12....       LCALL   ?DEALLOC_XSTACK8
   \   00000A   12....       LCALL   ?Subroutine20 & 0xFFFF
   \                     ??CrossCallReturnLabel_47:
   \   00000D   7413         MOV     A,#0x13
   \   00000F   12....       LCALL   ?DEALLOC_XSTACK8
   \   000012   7F08         MOV     R7,#0x8
   \   000014   02....       LJMP    ?BANKED_LEAVE_XDATA

   \                                 In  segment BANKED_CODE, align 1, keep-with-next
   \                     ?Subroutine18:
   \   000000   E8           MOV     A,R0
   \   000001   F0           MOVX    @DPTR,A
   \   000002   85..82       MOV     DPL,?V0 + 0
   \   000005   85..83       MOV     DPH,?V0 + 1
   \   000008   A3           INC     DPTR
   \   000009   8582..       MOV     ?V0 + 0,DPL
   \   00000C   8583..       MOV     ?V0 + 1,DPH
   \   00000F   7403         MOV     A,#0x3
   \   000011   68           XRL     A,R0
   \   000012   22           RET

   \                                 In  segment BANKED_CODE, align 1, keep-with-next
   \                     ?Subroutine12:
   \   000000   12....       LCALL   ?Subroutine26 & 0xFFFF
   \                     ??CrossCallReturnLabel_56:
   \   000003   F8           MOV     R0,A
   \   000004   7401         MOV     A,#0x1
   \   000006   22           RET

   \                                 In  segment BANKED_CODE, align 1, keep-with-next
   \                     ?Subroutine11:
   \   000000   7402         MOV     A,#0x2
   \   000002   F0           MOVX    @DPTR,A
   \   000003   85..82       MOV     DPL,?V0 + 0
   \   000006   85..83       MOV     DPH,?V0 + 1
   \   000009   12....       LCALL   ?Subroutine26 & 0xFFFF
   \                     ??CrossCallReturnLabel_55:
   \   00000C   F8           MOV     R0,A
   \   00000D   740A         MOV     A,#0xa
   \   00000F   22           RET

   \                                 In  segment BANKED_CODE, align 1, keep-with-next
   \                     ?Subroutine26:
   \   000000   E0           MOVX    A,@DPTR
   \   000001   FA           MOV     R2,A
   \   000002   A3           INC     DPTR
   \   000003   E0           MOVX    A,@DPTR
   \   000004   F9           MOV     R1,A
   \   000005   EA           MOV     A,R2
   \   000006   22           RET

   \                                 In  segment BANKED_CODE, align 1, keep-with-next
   \                     ?Subroutine7:
   \   000000   8A82         MOV     DPL,R2
   \   000002   8B83         MOV     DPH,R3
   \   000004   A3           INC     DPTR
   \   000005   A3           INC     DPTR
   \   000006   E0           MOVX    A,@DPTR
   \   000007   F5..         MOV     ?V0 + 3,A
   \   000009   12....       LCALL   ?Subroutine27 & 0xFFFF
   \                     ??CrossCallReturnLabel_58:
   \   00000C   7412         MOV     A,#0x12
   \   00000E   22           RET

   \                                 In  segment BANKED_CODE, align 1, keep-with-next
   \                     ?Subroutine5:
   \   000000   E8           MOV     A,R0
   \   000001   F0           MOVX    @DPTR,A
   \   000002   A3           INC     DPTR
   \   000003   E9           MOV     A,R1
   \   000004   F0           MOVX    @DPTR,A
   \   000005   E5..         MOV     A,?V0 + 0
   \   000007   2402         ADD     A,#0x2
   \   000009   F5..         MOV     ?V0 + 6,A
   \   00000B   E5..         MOV     A,?V0 + 1
   \   00000D   3400         ADDC    A,#0x0
   \   00000F   F5..         MOV     ?V0 + 7,A
   \   000011   E5..         MOV     A,?V0 + 6
   \   000013   2408         ADD     A,#0x8
   \   000015   F5..         MOV     ?V0 + 0,A
   \   000017   E5..         MOV     A,?V0 + 7
   \   000019   3400         ADDC    A,#0x0
   \   00001B   85..82       MOV     DPL,?V0 + 0
   \   00001E   F583         MOV     DPH,A
   \   000020   E0           MOVX    A,@DPTR
   \   000021   F5..         MOV     ?V0 + 2,A
   \   000023   A3           INC     DPTR
   \   000024   8582..       MOV     ?V0 + 0,DPL
   \   000027   8583..       MOV     ?V0 + 1,DPH
   \   00002A   12....       LCALL   ?Subroutine26 & 0xFFFF
   \                     ??CrossCallReturnLabel_54:
   \   00002D   2400         ADD     A,#0x0
   \   00002F   FE           MOV     R6,A
   \   000030   E4           CLR     A
   \   000031   39           ADDC    A,R1
   \   000032   FF           MOV     R7,A
   \   000033   E5..         MOV     A,?V0 + 0
   \   000035   2402         ADD     A,#0x2
   \   000037   F5..         MOV     ?V0 + 0,A
   \   000039   E5..         MOV     A,?V0 + 1
   \   00003B   3400         ADDC    A,#0x0
   \   00003D   F5..         MOV     ?V0 + 1,A
   \   00003F   85..82       MOV     DPL,?V0 + 0
   \   000042   F583         MOV     DPH,A
   \   000044   E0           MOVX    A,@DPTR
   \   000045   F8           MOV     R0,A
   \   000046   7409         MOV     A,#0x9
   \   000048   22           RET
    932          
    933          /***************************************************************************************************
    934           * @fn      MT_ZdoUnbindRequest
    935           *
    936           * @brief   Handle a Unbind request.
    937           *
    938           * @param   pBuf  - MT message data
    939           *
    940           * @return  void
    941           ***************************************************************************************************/

   \                                 In  segment BANKED_CODE, align 1, keep-with-next
    942          void MT_ZdoUnbindRequest(uint8 *pBuf)
   \                     MT_ZdoUnbindRequest:
    943          {
   \   000000   74F0         MOV     A,#-0x10
   \   000002   12....       LCALL   ?BANKED_ENTER_XDATA
   \   000005                ; Saved register size: 16
   \   000005                ; Auto size: 19
   \   000005   74ED         MOV     A,#-0x13
   \   000007   12....       LCALL   ?ALLOC_XSTACK8
    944            uint8 cmdId;
    945            uint8 retValue;
    946            zAddrType_t destAddr, devAddr;
    947            uint8 *pSrcAddr, *ptr;
    948            uint8 srcEPInt, dstEPInt;
    949            uint16 clusterID;
    950          
    951            /* parse header */
    952            cmdId = pBuf[MT_RPC_POS_CMD1];
   \   00000A   12....       LCALL   ?Subroutine7 & 0xFFFF
    953            pBuf += MT_RPC_FRAME_HDR_SZ;
    954          
    955            /* dev address */
    956            destAddr.addrMode = Addr16Bit;
   \                     ??CrossCallReturnLabel_21:
   \   00000D   12....       LCALL   ?XSTACK_DISP0_8
   \   000010   12....       LCALL   ?Subroutine11 & 0xFFFF
    957            destAddr.addr.shortAddr = BUILD_UINT16( pBuf[0], pBuf[1] );
   \                     ??CrossCallReturnLabel_29:
   \   000013   12....       LCALL   ?XSTACK_DISP0_8
   \   000016   12....       LCALL   ?Subroutine5 & 0xFFFF
    958            pBuf += 2;
    959          
    960            /* SrcAddress */
    961            pSrcAddr = pBuf;
    962            pBuf += Z_EXTADDR_LEN;
    963          
    964            /* SrcEPInt */
    965            srcEPInt = *pBuf++;
    966          
    967            /* ClusterID */
    968            clusterID = BUILD_UINT16( pBuf[0], pBuf[1]);
    969            pBuf += 2;
    970          
    971            /* Destination Address mode */
    972            devAddr.addrMode = *pBuf++;
   \                     ??CrossCallReturnLabel_17:
   \   000019   12....       LCALL   ?XSTACK_DISP0_8
   \   00001C   12....       LCALL   ?Subroutine18 & 0xFFFF
    973          
    974            /* Destination Address */
    975            if ( devAddr.addrMode == Addr64Bit )
   \                     ??CrossCallReturnLabel_45:
   \   00001F   7012         JNZ     ??MT_ZdoUnbindRequest_0
    976            {
    977              ptr = pBuf;
    978              osal_cpyExtAddr( devAddr.addr.extAddr, ptr );
   \   000021                ; Setup parameters for call to function sAddrExtCpy
   \   000021   AC..         MOV     R4,?V0 + 0
   \   000023   AD..         MOV     R5,?V0 + 1
   \   000025   7401         MOV     A,#0x1
   \   000027   12....       LCALL   ?XSTACK_DISP0_8
   \   00002A   AA82         MOV     R2,DPL
   \   00002C   AB83         MOV     R3,DPH
   \   00002E   12....       LCALL   ??sAddrExtCpy?relay
   \   000031   800B         SJMP    ??MT_ZdoUnbindRequest_1
    979            }
    980            else
    981            {
    982              devAddr.addr.shortAddr = BUILD_UINT16( pBuf[0], pBuf[1] );
   \                     ??MT_ZdoUnbindRequest_0:
   \   000033   12....       LCALL   ?Subroutine12 & 0xFFFF
    983            }
   \                     ??CrossCallReturnLabel_31:
   \   000036   12....       LCALL   ?XSTACK_DISP0_8
   \   000039   E8           MOV     A,R0
   \   00003A   F0           MOVX    @DPTR,A
   \   00003B   A3           INC     DPTR
   \   00003C   E9           MOV     A,R1
   \   00003D   F0           MOVX    @DPTR,A
    984            /* The short address occupies LSB two bytes */
    985            pBuf += Z_EXTADDR_LEN;
    986          
    987            /* dstEPInt */
    988            dstEPInt = *pBuf;
    989          
    990            retValue = (uint8)ZDP_UnbindReq( &destAddr, pSrcAddr, srcEPInt, clusterID, &devAddr, dstEPInt, 0);
   \                     ??MT_ZdoUnbindRequest_1:
   \   00003E                ; Setup parameters for call to function ZDP_BindUnbindReq
   \   00003E   75..00       MOV     ?V0 + 4,#0x0
   \   000041   78..         MOV     R0,#?V0 + 4
   \   000043   12....       LCALL   ?PUSH_XSTACK_I_ONE
   \   000046   85..82       MOV     DPL,?V0 + 0
   \   000049   85..83       MOV     DPH,?V0 + 1
   \   00004C   A3           INC     DPTR
   \   00004D   A3           INC     DPTR
   \   00004E   A3           INC     DPTR
   \   00004F   A3           INC     DPTR
   \   000050   A3           INC     DPTR
   \   000051   A3           INC     DPTR
   \   000052   A3           INC     DPTR
   \   000053   A3           INC     DPTR
   \   000054   E0           MOVX    A,@DPTR
   \   000055   F5..         MOV     ?V0 + 0,A
   \   000057   78..         MOV     R0,#?V0 + 0
   \   000059   12....       LCALL   ?PUSH_XSTACK_I_ONE
   \   00005C   7403         MOV     A,#0x3
   \   00005E   12....       LCALL   ?XSTACK_DISP0_8
   \   000061   8582..       MOV     ?V0 + 0,DPL
   \   000064   8583..       MOV     ?V0 + 1,DPH
   \   000067   78..         MOV     R0,#?V0 + 0
   \   000069   12....       LCALL   ?PUSH_XSTACK_I_TWO
   \   00006C   8E..         MOV     ?V0 + 0,R6
   \   00006E   8F..         MOV     ?V0 + 1,R7
   \   000070   78..         MOV     R0,#?V0 + 0
   \   000072   12....       LCALL   ?PUSH_XSTACK_I_TWO
   \   000075   78..         MOV     R0,#?V0 + 6
   \   000077   12....       LCALL   ?PUSH_XSTACK_I_TWO
   \   00007A   A9..         MOV     R1,?V0 + 2
   \   00007C   7412         MOV     A,#0x12
   \   00007E   12....       LCALL   ?XSTACK_DISP0_8
   \   000081   AC82         MOV     R4,DPL
   \   000083   AD83         MOV     R5,DPH
   \   000085   7A22         MOV     R2,#0x22
   \   000087   02....       LJMP    ?Subroutine1 & 0xFFFF
    991          
    992            MT_BuildAndSendZToolResponse(((uint8)MT_RPC_CMD_SRSP | (uint8)MT_RPC_SYS_ZDO), cmdId, 1, &retValue);
    993          }
    994          
    995          /***************************************************************************************************
    996           * @fn      MT_ZdoStartupFromApp
    997           *
    998           * @brief   Handle a Startup from App request.
    999           *
   1000           * @param   pBuf  - MT message data
   1001           *
   1002           * @return  void
   1003           ***************************************************************************************************/

   \                                 In  segment BANKED_CODE, align 1, keep-with-next
   1004          void MT_ZdoStartupFromApp(uint8 *pBuf)
   \                     MT_ZdoStartupFromApp:
   1005          {
   \   000000   74F7         MOV     A,#-0x9
   \   000002   12....       LCALL   ?BANKED_ENTER_XDATA
   \   000005                ; Saved register size: 9
   \   000005                ; Auto size: 1
   \   000005   74FF         MOV     A,#-0x1
   \   000007   12....       LCALL   ?ALLOC_XSTACK8
   1006            uint8 cmdId;
   1007            uint8 retValue;
   1008          
   1009            /* parse header */
   1010            cmdId = pBuf[MT_RPC_POS_CMD1];
   \   00000A   8A82         MOV     DPL,R2
   \   00000C   8B83         MOV     DPH,R3
   \   00000E   A3           INC     DPTR
   \   00000F   A3           INC     DPTR
   \   000010   E0           MOVX    A,@DPTR
   \   000011   FE           MOV     R6,A
   1011            pBuf += MT_RPC_FRAME_HDR_SZ;
   1012          
   1013            retValue = ZDOInitDevice(100);
   \   000012                ; Setup parameters for call to function ZDOInitDevice
   \   000012   7A64         MOV     R2,#0x64
   \   000014   7B00         MOV     R3,#0x0
   \   000016   12....       LCALL   ??ZDOInitDevice?relay
   \   000019                REQUIRE ?Subroutine2
   \   000019                ; // Fall through to label ?Subroutine2
   1014          
   1015            MT_BuildAndSendZToolResponse(((uint8)MT_RPC_CMD_SRSP | (uint8)MT_RPC_SYS_ZDO), cmdId, 1, &retValue);
   1016          }

   \                                 In  segment BANK_RELAYS, align 1
   \                     ??MT_ZdoCommandProcessing?relay:
   \   000000   12....       LCALL   ?BDISPATCH
   \   000003   ......       DC24    MT_ZdoCommandProcessing

   \                                 In  segment BANK_RELAYS, align 1
   \                     ??MT_ZdoNWKAddressRequest?relay:
   \   000000   12....       LCALL   ?BDISPATCH
   \   000003   ......       DC24    MT_ZdoNWKAddressRequest

   \                                 In  segment BANK_RELAYS, align 1
   \                     ??MT_ZdoIEEEAddrRequest?relay:
   \   000000   12....       LCALL   ?BDISPATCH
   \   000003   ......       DC24    MT_ZdoIEEEAddrRequest

   \                                 In  segment BANK_RELAYS, align 1
   \                     ??MT_ZdoNodeDescRequest?relay:
   \   000000   12....       LCALL   ?BDISPATCH
   \   000003   ......       DC24    MT_ZdoNodeDescRequest

   \                                 In  segment BANK_RELAYS, align 1
   \                     ??MT_ZdoPowerDescRequest?relay:
   \   000000   12....       LCALL   ?BDISPATCH
   \   000003   ......       DC24    MT_ZdoPowerDescRequest

   \                                 In  segment BANK_RELAYS, align 1
   \                     ??MT_ZdoSimpleDescRequest?relay:
   \   000000   12....       LCALL   ?BDISPATCH
   \   000003   ......       DC24    MT_ZdoSimpleDescRequest

   \                                 In  segment BANK_RELAYS, align 1
   \                     ??MT_ZdoActiveEpRequest?relay:
   \   000000   12....       LCALL   ?BDISPATCH
   \   000003   ......       DC24    MT_ZdoActiveEpRequest

   \                                 In  segment BANK_RELAYS, align 1
   \                     ??MT_ZdoMatchDescRequest?relay:
   \   000000   12....       LCALL   ?BDISPATCH
   \   000003   ......       DC24    MT_ZdoMatchDescRequest

   \                                 In  segment BANK_RELAYS, align 1
   \                     ??MT_ZdoComplexDescRequest?relay:
   \   000000   12....       LCALL   ?BDISPATCH
   \   000003   ......       DC24    MT_ZdoComplexDescRequest

   \                                 In  segment BANK_RELAYS, align 1
   \                     ??MT_ZdoUserDescRequest?relay:
   \   000000   12....       LCALL   ?BDISPATCH
   \   000003   ......       DC24    MT_ZdoUserDescRequest

   \                                 In  segment BANK_RELAYS, align 1
   \                     ??MT_ZdoEndDevAnnce?relay:
   \   000000   12....       LCALL   ?BDISPATCH
   \   000003   ......       DC24    MT_ZdoEndDevAnnce

   \                                 In  segment BANK_RELAYS, align 1
   \                     ??MT_ZdoUserDescSet?relay:
   \   000000   12....       LCALL   ?BDISPATCH
   \   000003   ......       DC24    MT_ZdoUserDescSet

   \                                 In  segment BANK_RELAYS, align 1
   \                     ??MT_ZdoServiceDiscRequest?relay:
   \   000000   12....       LCALL   ?BDISPATCH
   \   000003   ......       DC24    MT_ZdoServiceDiscRequest

   \                                 In  segment BANK_RELAYS, align 1
   \                     ??MT_ZdoEndDevBindRequest?relay:
   \   000000   12....       LCALL   ?BDISPATCH
   \   000003   ......       DC24    MT_ZdoEndDevBindRequest

   \                                 In  segment BANK_RELAYS, align 1
   \                     ??MT_ZdoBindRequest?relay:
   \   000000   12....       LCALL   ?BDISPATCH
   \   000003   ......       DC24    MT_ZdoBindRequest

   \                                 In  segment BANK_RELAYS, align 1
   \                     ??MT_ZdoUnbindRequest?relay:
   \   000000   12....       LCALL   ?BDISPATCH
   \   000003   ......       DC24    MT_ZdoUnbindRequest

   \                                 In  segment BANK_RELAYS, align 1
   \                     ??MT_ZdoStartupFromApp?relay:
   \   000000   12....       LCALL   ?BDISPATCH
   \   000003   ......       DC24    MT_ZdoStartupFromApp
   1017          
   1018          #if defined (MT_ZDO_MGMT)
   1019          /***************************************************************************************************
   1020           * @fn      MT_ZdoMgmtNwkDiscRequest
   1021           *
   1022           * @brief   Handle a Mgmt Nwk Discovery request.
   1023           *
   1024           * @param   pBuf  - MT message data
   1025           *
   1026           * @return  void
   1027           ***************************************************************************************************/
   1028          void MT_ZdoMgmtNwkDiscRequest(uint8 *pBuf)
   1029          {
   1030            uint8 cmdId;
   1031            uint8 retValue;
   1032            zAddrType_t destAddr;
   1033            uint32 scanChannels;
   1034            uint8 scanDuration, startIndex;
   1035          
   1036            /* parse header */
   1037            cmdId = pBuf[MT_RPC_POS_CMD1];
   1038            pBuf += MT_RPC_FRAME_HDR_SZ;
   1039          
   1040            /* Dev address */
   1041            destAddr.addrMode = Addr16Bit;
   1042            destAddr.addr.shortAddr = BUILD_UINT16( pBuf[0], pBuf[1] );
   1043            pBuf += 2;
   1044          
   1045            /* Scan Channels */
   1046            scanChannels = BUILD_UINT32( pBuf[0], pBuf[1], pBuf[2], pBuf[3] );
   1047            pBuf += 4;
   1048          
   1049            /* Scan Duration */
   1050            scanDuration = *pBuf++;
   1051          
   1052            /* Start Index */
   1053            startIndex = *pBuf;
   1054          
   1055            retValue = (uint8)ZDP_MgmtNwkDiscReq( &destAddr, scanChannels, scanDuration, startIndex, 0);
   1056          
   1057            MT_BuildAndSendZToolResponse(((uint8)MT_RPC_CMD_SRSP | (uint8)MT_RPC_SYS_ZDO), cmdId, 1, &retValue);
   1058          }
   1059          
   1060          /***************************************************************************************************
   1061           * @fn      MT_ZdoMgmtLqiRequest
   1062           *
   1063           * @brief   Handle a Mgmt Lqi request.
   1064           *
   1065           * @param   pBuf  - MT message data
   1066           *
   1067           * @return  void
   1068           ***************************************************************************************************/
   1069          void MT_ZdoMgmtLqiRequest(uint8 *pBuf)
   1070          {
   1071            uint8 cmdId;
   1072            uint8 retValue;
   1073            zAddrType_t destAddr;
   1074            uint8 startIndex;
   1075          
   1076            /* parse header */
   1077            cmdId = pBuf[MT_RPC_POS_CMD1];
   1078            pBuf += MT_RPC_FRAME_HDR_SZ;
   1079          
   1080            /* Dev address */
   1081            destAddr.addrMode = Addr16Bit;
   1082            destAddr.addr.shortAddr = BUILD_UINT16( pBuf[0], pBuf[1] );
   1083            pBuf += 2;
   1084          
   1085            /* Start Index */
   1086            startIndex = *pBuf;
   1087          
   1088            retValue = (uint8)ZDP_MgmtLqiReq( &destAddr, startIndex, 0);
   1089          
   1090            MT_BuildAndSendZToolResponse(((uint8)MT_RPC_CMD_SRSP | (uint8)MT_RPC_SYS_ZDO), cmdId, 1, &retValue);
   1091          }
   1092          
   1093          /***************************************************************************************************
   1094           * @fn      MT_ZdoMgmtRtgRequest
   1095           *
   1096           * @brief   Handle a Mgmt Rtg request.
   1097           *
   1098           * @param   pBuf  - MT message data
   1099           *
   1100           * @return  void
   1101           ***************************************************************************************************/
   1102          void MT_ZdoMgmtRtgRequest(uint8 *pBuf)
   1103          {
   1104            uint8 cmdId;
   1105            uint8 retValue;
   1106            zAddrType_t destAddr;
   1107            uint8 startIndex;
   1108          
   1109            /* parse header */
   1110            cmdId = pBuf[MT_RPC_POS_CMD1];
   1111            pBuf += MT_RPC_FRAME_HDR_SZ;
   1112          
   1113            /* Dev Address */
   1114            destAddr.addrMode = Addr16Bit;
   1115            destAddr.addr.shortAddr = BUILD_UINT16( pBuf[0], pBuf[1]);
   1116            pBuf += 2;
   1117          
   1118            /* Start Index */
   1119            startIndex = *pBuf;
   1120          
   1121            retValue = (byte)ZDP_MgmtRtgReq( &destAddr, startIndex, 0);
   1122          
   1123            MT_BuildAndSendZToolResponse(((uint8)MT_RPC_CMD_SRSP | (uint8)MT_RPC_SYS_ZDO), cmdId, 1, &retValue);
   1124          }
   1125          
   1126          /***************************************************************************************************
   1127           * @fn      MT_ZdoMgmtBindRequest
   1128           *
   1129           * @brief   Handle a Mgmt Bind request.
   1130           *
   1131           * @param   pBuf  - MT message data
   1132           *
   1133           * @return  void
   1134           ***************************************************************************************************/
   1135          void MT_ZdoMgmtBindRequest(uint8 *pBuf)
   1136          {
   1137            uint8 cmdId;
   1138            uint8 retValue;
   1139            zAddrType_t destAddr;
   1140            uint8 startIndex;
   1141          
   1142            /* parse header */
   1143            cmdId = pBuf[MT_RPC_POS_CMD1];
   1144            pBuf += MT_RPC_FRAME_HDR_SZ;
   1145          
   1146            /* Dev Address */
   1147            destAddr.addrMode = Addr16Bit;
   1148            destAddr.addr.shortAddr = BUILD_UINT16( pBuf[0], pBuf[1] );
   1149            pBuf += 2;
   1150          
   1151            /* Start Index */
   1152            startIndex = *pBuf;
   1153          
   1154            retValue = (uint8)ZDP_MgmtBindReq( &destAddr, startIndex, 0);
   1155          
   1156            MT_BuildAndSendZToolResponse(((uint8)MT_RPC_CMD_SRSP | (uint8)MT_RPC_SYS_ZDO), cmdId, 1, &retValue);
   1157          }
   1158          
   1159          /***************************************************************************************************
   1160           * @fn      MT_ZdoMgmtLeaveRequest
   1161           *
   1162           * @brief   Handle a Mgmt Leave request.
   1163           *
   1164           * @param   pBuf  - MT message data
   1165           *
   1166           * @return  void
   1167           ***************************************************************************************************/
   1168          void MT_ZdoMgmtLeaveRequest(uint8 *pBuf)
   1169          {
   1170            uint8 cmdId;
   1171            uint8 retValue;
   1172            zAddrType_t destAddr;
   1173            uint8 *pIEEEAddr;
   1174            uint8 removeChildren, rejoin;
   1175          
   1176            /* parse header */
   1177            cmdId = pBuf[MT_RPC_POS_CMD1];
   1178            pBuf += MT_RPC_FRAME_HDR_SZ;
   1179          
   1180            /* Destination Address */
   1181            destAddr.addrMode = Addr16Bit;
   1182            destAddr.addr.shortAddr = BUILD_UINT16( pBuf[0], pBuf[1] );
   1183            pBuf += 2;
   1184          
   1185            /* IEEE address */
   1186            pIEEEAddr = pBuf;
   1187            pBuf += Z_EXTADDR_LEN;
   1188          
   1189            /* Remove Children */
   1190            removeChildren = *pBuf++;
   1191          
   1192            /* Rejoin */
   1193            rejoin = *pBuf;
   1194          
   1195            retValue = (byte)ZDP_MgmtLeaveReq( &destAddr, pIEEEAddr, removeChildren, rejoin, 0);
   1196          
   1197            MT_BuildAndSendZToolResponse(((uint8)MT_RPC_CMD_SRSP | (uint8)MT_RPC_SYS_ZDO), cmdId, 1, &retValue);
   1198          }
   1199          
   1200          
   1201          /***************************************************************************************************
   1202           * @fn      MT_ZdoMgmtDirectJoinRequest
   1203           *
   1204           * @brief   Handle a Mgmt Direct Join request.
   1205           *
   1206           * @param   pBuf  - MT message data
   1207           *
   1208           * @return  void
   1209           ***************************************************************************************************/
   1210          void MT_ZdoMgmtDirectJoinRequest(uint8 *pBuf)
   1211          {
   1212            uint8 cmdId;
   1213            uint8 retValue;
   1214            zAddrType_t destAddr;
   1215            uint8 *deviceAddr;
   1216            uint8 capInfo;
   1217          
   1218            /* parse header */
   1219            cmdId = pBuf[MT_RPC_POS_CMD1];
   1220            pBuf += MT_RPC_FRAME_HDR_SZ;
   1221          
   1222            /* Destination Address */
   1223            destAddr.addrMode = Addr16Bit;
   1224            destAddr.addr.shortAddr = BUILD_UINT16( pBuf[0], pBuf[1] );
   1225            pBuf += 2;
   1226          
   1227            /* Device Address */
   1228            deviceAddr = pBuf;
   1229            pBuf += Z_EXTADDR_LEN;
   1230          
   1231            /* Capability information */
   1232            capInfo = *pBuf;
   1233          
   1234            retValue = (uint8)ZDP_MgmtDirectJoinReq( &destAddr, deviceAddr, capInfo, 0);
   1235          
   1236            MT_BuildAndSendZToolResponse(((uint8)MT_RPC_CMD_SRSP | (uint8)MT_RPC_SYS_ZDO), cmdId, 1, &retValue);
   1237          }
   1238          
   1239          /***************************************************************************************************
   1240           * @fn      MT_ZdoMgmtPermitJoinRequest
   1241           *
   1242           * @brief   Handle a Mgmt Permit Join request.
   1243           *
   1244           * @param   pBuf  - MT message data
   1245           *
   1246           * @return  void
   1247           ***************************************************************************************************/
   1248          void MT_ZdoMgmtPermitJoinRequest(uint8 *pBuf)
   1249          {
   1250            uint8 cmdId;
   1251            uint8 retValue;
   1252            zAddrType_t destAddr;
   1253            uint8 duration, tcSignificance;
   1254          
   1255            /* parse header */
   1256            cmdId = pBuf[MT_RPC_POS_CMD1];
   1257            pBuf += MT_RPC_FRAME_HDR_SZ;
   1258          
   1259            /* Destination Address */
   1260            destAddr.addrMode = Addr16Bit;
   1261            destAddr.addr.shortAddr = BUILD_UINT16( pBuf[0], pBuf[1] );
   1262            pBuf += 2;
   1263          
   1264            /* Duration */
   1265            duration = *pBuf++;
   1266          
   1267            /* Trust center significance */
   1268            tcSignificance = *pBuf;
   1269          
   1270            retValue = (byte)ZDP_MgmtPermitJoinReq( &destAddr, duration, tcSignificance, 0);
   1271          
   1272            MT_BuildAndSendZToolResponse(((uint8)MT_RPC_CMD_SRSP | (uint8)MT_RPC_SYS_ZDO), cmdId, 1, &retValue);
   1273          }
   1274          
   1275          /***************************************************************************************************
   1276           * @fn      MT_ZdoMgmtNwkUpdateRequest
   1277           *
   1278           * @brief   Handle a Mgmt Nwk Update request.
   1279           *
   1280           * @param   pBuf  - MT message data
   1281           *
   1282           * @return  void
   1283           ***************************************************************************************************/
   1284          void MT_ZdoMgmtNwkUpdateRequest(uint8 *pBuf)
   1285          {
   1286            uint8 cmdId;
   1287            uint8 retValue;
   1288            zAddrType_t destAddr;
   1289            uint32 channelMask;
   1290            uint8 scanDuration, scanCount;
   1291            uint16 nwkManagerAddr;
   1292          
   1293              /* parse header */
   1294            cmdId = pBuf[MT_RPC_POS_CMD1];
   1295            pBuf += MT_RPC_FRAME_HDR_SZ;
   1296          
   1297            /* Destination address */
   1298            destAddr.addr.shortAddr = BUILD_UINT16( pBuf[0], pBuf[1] );
   1299            pBuf += 2;
   1300          
   1301            /* Destination address mode */
   1302            destAddr.addrMode = *pBuf++;
   1303          
   1304            channelMask = BUILD_UINT32( pBuf[0], pBuf[1], pBuf[2], pBuf[3]);
   1305            pBuf += 4;
   1306          
   1307            /* Scan duration */
   1308            scanDuration = *pBuf++;
   1309          
   1310            /* Scan count */
   1311            scanCount = *pBuf++;
   1312          
   1313            /* NWK manager address */
   1314            nwkManagerAddr = BUILD_UINT16( pBuf[0], pBuf[1] );
   1315          
   1316            /* Send the Management Network Update request */
   1317            retValue = (uint8)ZDP_MgmtNwkUpdateReq( &destAddr, channelMask, scanDuration,
   1318                                                    scanCount, _NIB.nwkUpdateId+1, nwkManagerAddr );
   1319          
   1320            /*
   1321              Since we don't recevied our own broadcast messages, we should
   1322              send a unicast copy of the message to ourself.
   1323            */
   1324            if ( destAddr.addrMode == AddrBroadcast )
   1325            {
   1326              destAddr.addrMode = Addr16Bit;
   1327              destAddr.addr.shortAddr = _NIB.nwkDevAddress;
   1328              retValue = (uint8) ZDP_MgmtNwkUpdateReq( &destAddr, channelMask, scanDuration,
   1329                                                       scanCount, _NIB.nwkUpdateId+1, nwkManagerAddr );
   1330            }
   1331          
   1332            MT_BuildAndSendZToolResponse(((uint8)MT_RPC_CMD_SRSP | (uint8)MT_RPC_SYS_ZDO), cmdId, 1, &retValue);
   1333          }
   1334          #endif /* MT_ZDO_MGMT */
   1335          
   1336          #endif /* MT_ZDO_FUNC */
   1337          
   1338          
   1339          /***************************************************************************************************
   1340           * Callback handling function
   1341           ***************************************************************************************************/
   1342          
   1343          #if defined (MT_ZDO_CB_FUNC)
   1344          /***************************************************************************************************
   1345           * @fn     MT_ZdoDirectCB()
   1346           *
   1347           * @brief  ZDO direct callback.  Build an MT message directly from the
   1348           *         over-the-air ZDO message.
   1349           *
   1350           * @param  pData - Incoming AF frame.
   1351           *
   1352           * @return  none
   1353           ***************************************************************************************************/
   1354          void MT_ZdoDirectCB( afIncomingMSGPacket_t *pData,  zdoIncomingMsg_t *inMsg )
   1355          {
   1356            uint8 dataLen;
   1357            uint8 msgLen;
   1358            uint8 *pBuf;
   1359            uint8 *p;
   1360            uint8 id;
   1361            
   1362            // Is the message an exception or not a response?
   1363            if ( ((pData->clusterId & ZDO_RESPONSE_BIT) == 0) 
   1364                                || MT_ZdoHandleExceptions( pData, inMsg ) )
   1365            {
   1366              // Handled somewhere else or not needed
   1367              return;
   1368            }
   1369          
   1370            /* map cluster ID to MT message */
   1371            id = (uint8) pData->clusterId;
   1372            id = mtZdoCluster2Rsp[id >> 4][id & 0x0F];
   1373          
   1374            /* ZDO data starts after one-byte sequence number */
   1375            dataLen = pData->cmd.DataLength - 1;
   1376          
   1377            /* msg buffer length includes two bytes for srcAddr */
   1378            msgLen = dataLen + sizeof(uint16);
   1379          
   1380            /* get buffer */
   1381            if ((p = pBuf = MT_TransportAlloc(((uint8)MT_RPC_CMD_AREQ |(uint8)MT_RPC_SYS_ZDO), msgLen)) != NULL)
   1382            {
   1383              /* build header */
   1384              *p++ = msgLen;
   1385              *p++ = (uint8)MT_RPC_CMD_AREQ | (uint8)MT_RPC_SYS_ZDO;
   1386              *p++ = id;
   1387          
   1388              /* build srcAddr */
   1389              *p++ = LO_UINT16(pData->srcAddr.addr.shortAddr);
   1390              *p++ = HI_UINT16(pData->srcAddr.addr.shortAddr);
   1391          
   1392              /* copy ZDO data, skipping one-byte sequence number */
   1393              osal_memcpy(p, (pData->cmd.Data + 1), dataLen);
   1394          
   1395              /* send it */
   1396              MT_TransportSend(pBuf);
   1397            }
   1398          }
   1399          
   1400          /***************************************************************************************************
   1401           * @fn     MT_ZdoHandleExceptions()
   1402           *
   1403           * @brief  Handles all messages that are an expection to the generic MT ZDO Response.
   1404           *
   1405           * @param  pData - Incoming AF frame.
   1406           *
   1407           * @return  TRUE if handled by this function, FALSE if not
   1408           ***************************************************************************************************/
   1409          uint8 MT_ZdoHandleExceptions( afIncomingMSGPacket_t *pData, zdoIncomingMsg_t *inMsg )
   1410          {
   1411            uint8 ret = TRUE;
   1412            ZDO_NwkIEEEAddrResp_t *nwkRsp = NULL;
   1413            ZDO_DeviceAnnce_t devAnnce;
   1414            uint8 doDefault = FALSE;
   1415            
   1416            switch ( inMsg->clusterID )
   1417            {
   1418              case NWK_addr_rsp:
   1419              case IEEE_addr_rsp:
   1420                nwkRsp = ZDO_ParseAddrRsp( inMsg );
   1421                MT_ZdoAddrRspCB( nwkRsp, inMsg->clusterID );
   1422                if ( nwkRsp )
   1423                  osal_mem_free( nwkRsp );
   1424                break;
   1425                
   1426              case Device_annce:
   1427                ZDO_ParseDeviceAnnce( inMsg, &devAnnce );
   1428                MT_ZdoEndDevAnnceCB( &devAnnce, inMsg->srcAddr.addr.shortAddr );
   1429                break;
   1430                
   1431              case Simple_Desc_rsp:
   1432                if ( pData->cmd.DataLength > 5 )
   1433                  ret = FALSE;
   1434                else
   1435                  doDefault = TRUE;        
   1436                break;  
   1437                
   1438              default:
   1439                ret = FALSE;
   1440                break;
   1441            }
   1442            
   1443            if ( doDefault )
   1444            {
   1445              ret = FALSE;
   1446              pData->clusterId = 0x26;
   1447              pData->cmd.DataLength = 2;
   1448            }
   1449            
   1450            return ( ret );
   1451          }
   1452          
   1453          /***************************************************************************************************
   1454           * @fn      MT_ZdoAddrRspCB
   1455           *
   1456           * @brief   Handle IEEE or nwk address response OSAL message from ZDO.
   1457           *
   1458           * @param   pMsg  - Message data
   1459           *
   1460           * @return  void
   1461           */
   1462          void MT_ZdoAddrRspCB( ZDO_NwkIEEEAddrResp_t *pMsg, uint16 clusterID )
   1463          {
   1464            uint8   listLen;
   1465            uint8   msgLen;
   1466            uint8   *pBuf;
   1467            uint8   *p;
   1468          
   1469            /* both ZDO_NwkAddrResp_t and ZDO_IEEEAddrResp_t must be the same */
   1470          
   1471            /* get length, sanity check length */
   1472            listLen = pMsg->numAssocDevs;
   1473            
   1474            /* calculate msg length */
   1475            msgLen = MT_ZDO_ADDR_RSP_LEN + (listLen * sizeof(uint16));
   1476          
   1477            /* get buffer */
   1478            if ((p = pBuf = MT_TransportAlloc(((uint8)MT_RPC_CMD_AREQ | (uint8)MT_RPC_SYS_ZDO), msgLen)) != NULL)
   1479            {
   1480              /* build header */
   1481              *p++ = msgLen;
   1482              *p++ = (uint8)MT_RPC_CMD_AREQ | (uint8)MT_RPC_SYS_ZDO;
   1483              *p++ = (clusterID == IEEE_addr_rsp) ?
   1484                     MT_ZDO_IEEE_ADDR_RSP : MT_ZDO_NWK_ADDR_RSP;
   1485          
   1486              /* build msg parameters */
   1487          
   1488              *p++ = pMsg->status;
   1489          
   1490              osal_cpyExtAddr(p, pMsg->extAddr);
   1491              p += Z_EXTADDR_LEN;
   1492          
   1493              *p++ = LO_UINT16(pMsg->nwkAddr);
   1494              *p++ = HI_UINT16(pMsg->nwkAddr);
   1495          
   1496              *p++ = pMsg->startIndex;
   1497          
   1498              *p++ = listLen;
   1499          
   1500              MT_Word2Buf(p, pMsg->devList, listLen);
   1501          
   1502              /* send it */
   1503              MT_TransportSend(pBuf);
   1504            }
   1505          }
   1506          
   1507          /***************************************************************************************************
   1508           * @fn      MT_ZdoEndDevAnnceCB
   1509           *
   1510           * @brief   Handle end device announce OSAL message from ZDO.
   1511           *
   1512           * @param   pMsg  - Message data
   1513           *
   1514           * @return  void
   1515           */
   1516          void MT_ZdoEndDevAnnceCB( ZDO_DeviceAnnce_t *pMsg, uint16 srcAddr )
   1517          {
   1518            uint8 *pBuf;
   1519            uint8 *p;
   1520          
   1521            if ((p = pBuf = MT_TransportAlloc(((uint8)MT_RPC_CMD_AREQ | (uint8)MT_RPC_SYS_ZDO),
   1522                              MT_ZDO_END_DEVICE_ANNCE_IND_LEN)) != NULL)
   1523            {
   1524              *p++ = MT_ZDO_END_DEVICE_ANNCE_IND_LEN;
   1525              *p++ = (uint8)MT_RPC_CMD_AREQ | (uint8)MT_RPC_SYS_ZDO;
   1526              *p++ = MT_ZDO_END_DEVICE_ANNCE_IND;
   1527          
   1528              *p++ = LO_UINT16(srcAddr);
   1529              *p++ = HI_UINT16(srcAddr);
   1530          
   1531              *p++ = LO_UINT16(pMsg->nwkAddr);
   1532              *p++ = HI_UINT16(pMsg->nwkAddr);
   1533          
   1534              osal_cpyExtAddr(p, pMsg->extAddr);
   1535              p += Z_EXTADDR_LEN;
   1536          
   1537              *p = pMsg->capabilities;
   1538          
   1539              MT_TransportSend(pBuf);
   1540            }
   1541          }
   1542          #endif // MT_ZDO_CB_FUNC
   1543          /***************************************************************************************************
   1544          ***************************************************************************************************/
   1545          
   1546          #endif   /*ZDO Command Processing in MT*/

   Maximum stack usage in bytes:

     Function                       ISTACK PSTACK XSTACK
     --------                       ------ ------ ------
     MT_ZdoActiveEpRequest              1      0     29
       -> ZDP_NWKAddrOfInterestReq      0      0     40
       -> MT_BuildAndSendZToolResponse
                                        0      0     38
     MT_ZdoBindRequest                  1      0     52
       -> sAddrExtCpy                   0      0     70
       -> ZDP_BindUnbindReq             0      0     86
       -> MT_BuildAndSendZToolResponse
                                        0      0     70
     MT_ZdoCommandProcessing            0      0      9
       -> MT_ZdoNWKAddressRequest       0      0     18
       -> MT_ZdoIEEEAddrRequest         0      0     18
       -> MT_ZdoNodeDescRequest         0      0     18
       -> MT_ZdoPowerDescRequest        0      0     18
       -> MT_ZdoSimpleDescRequest       0      0     18
       -> MT_ZdoActiveEpRequest         0      0     18
       -> MT_ZdoMatchDescRequest        0      0     18
       -> MT_ZdoComplexDescRequest      0      0     18
       -> MT_ZdoUserDescRequest         0      0     18
       -> MT_ZdoEndDevAnnce             0      0     18
       -> MT_ZdoUserDescSet             0      0     18
       -> MT_ZdoServiceDiscRequest      0      0     18
       -> MT_ZdoEndDevBindRequest       0      0     18
       -> MT_ZdoBindRequest             0      0     18
       -> MT_ZdoUnbindRequest           0      0     18
       -> MT_ZdoStartupFromApp          0      0     18
     MT_ZdoComplexDescRequest           1      0     29
       -> ZDP_NWKAddrOfInterestReq      0      0     40
       -> MT_BuildAndSendZToolResponse
                                        0      0     38
     MT_ZdoEndDevAnnce                  1      0     20
       -> ZDP_DeviceAnnce               0      0     22
       -> MT_BuildAndSendZToolResponse
                                        0      0     20
     MT_ZdoEndDevBindRequest            1      0    103
       -> ZDP_EndDeviceBindReq          0      0    188
       -> MT_BuildAndSendZToolResponse
                                        0      0    170
     MT_ZdoIEEEAddrRequest              1      0     19
       -> ZDP_IEEEAddrReq               0      0     20
       -> MT_BuildAndSendZToolResponse
                                        0      0     20
     MT_ZdoMatchDescRequest             1      0    105
       -> ZDP_MatchDescReq              0      0    192
       -> MT_BuildAndSendZToolResponse
                                        0      0    176
     MT_ZdoNWKAddressRequest            1      0     20
       -> ZDP_NwkAddrReq                0      0     22
       -> MT_BuildAndSendZToolResponse
                                        0      0     22
     MT_ZdoNodeDescRequest              1      0     29
       -> ZDP_NWKAddrOfInterestReq      0      0     40
       -> MT_BuildAndSendZToolResponse
                                        0      0     38
     MT_ZdoPowerDescRequest             1      0     29
       -> ZDP_NWKAddrOfInterestReq      0      0     40
       -> MT_BuildAndSendZToolResponse
                                        0      0     38
     MT_ZdoServiceDiscRequest           1      0     19
       -> ZDP_ServerDiscReq             0      0     20
       -> MT_BuildAndSendZToolResponse
                                        0      0     20
     MT_ZdoSimpleDescRequest            1      0     29
       -> ZDP_SimpleDescReq             0      0     40
       -> MT_BuildAndSendZToolResponse
                                        0      0     38
     MT_ZdoStartupFromApp               1      0     19
       -> ZDOInitDevice                 0      0     20
       -> MT_BuildAndSendZToolResponse
                                        0      0     20
     MT_ZdoUnbindRequest                1      0     52
       -> sAddrExtCpy                   0      0     70
       -> ZDP_BindUnbindReq             0      0     86
       -> MT_BuildAndSendZToolResponse
                                        0      0     70
     MT_ZdoUserDescRequest              1      0     29
       -> ZDP_NWKAddrOfInterestReq      0      0     40
       -> MT_BuildAndSendZToolResponse
                                        0      0     38
     MT_ZdoUserDescSet                  1      0     51
       -> osal_memcpy                   0      0     84
       -> ZDP_UserDescSet               0      0     82
       -> MT_BuildAndSendZToolResponse
                                        0      0     78


   Segment part sizes:

     Function/Label                   Bytes
     --------------                   -----
     _zdoCallbackSub                     4
     mtzdoResponseBuffer               100
     MT_ZdoCommandProcessing           153
     ??Subroutine34_0                    5
     MT_ZdoNWKAddressRequest            51
     ?Subroutine14                      10
     ?Subroutine19                       9
     ??Subroutine38_0                    9
     ?Subroutine29                      15
     ?Subroutine27                      11
     ?Subroutine28                       6
     MT_ZdoIEEEAddrRequest              49
     ??Subroutine33_0                    3
     ?Subroutine23                       1
     ?Subroutine8                       18
     ??Subroutine39_0                   10
     MT_ZdoNodeDescRequest              36
     ??Subroutine31_0                   10
     ??Subroutine32_0                   10
     ?Subroutine25                      16
     ?Subroutine13                       9
     ?Subroutine22                       4
     ??Subroutine35_0                   11
     ?Subroutine3                        6
     ?Subroutine4                       17
     ?Subroutine24                      12
     ?Subroutine30                      11
     MT_ZdoPowerDescRequest             32
     ?Subroutine0                        3
     ?Subroutine9                        6
     MT_ZdoSimpleDescRequest            51
     MT_ZdoActiveEpRequest              32
     MT_ZdoMatchDescRequest            308
     ?Subroutine21                      23
     ?Subroutine15                       3
     ??Subroutine36_0                    5
     ??Subroutine37_0                    4
     MT_ZdoComplexDescRequest           33
     MT_ZdoUserDescRequest              33
     MT_ZdoEndDevAnnce                  91
     ?Subroutine2                        3
     MT_ZdoUserDescSet                 156
     ?Subroutine16                       6
     ?Subroutine10                      12
     ?Subroutine20                      11
     MT_ZdoServiceDiscRequest           32
     MT_ZdoEndDevBindRequest           291
     ?Subroutine17                      22
     ?Subroutine6                       23
     MT_ZdoBindRequest                 135
     ?Subroutine1                       23
     ?Subroutine18                      19
     ?Subroutine12                       7
     ?Subroutine11                      16
     ?Subroutine26                       7
     ?Subroutine7                       15
     ?Subroutine5                       73
     MT_ZdoUnbindRequest               138
     MT_ZdoStartupFromApp               25
     ??MT_ZdoCommandProcessing?relay     6
     ??MT_ZdoNWKAddressRequest?relay     6
     ??MT_ZdoIEEEAddrRequest?relay       6
     ??MT_ZdoNodeDescRequest?relay       6
     ??MT_ZdoPowerDescRequest?relay      6
     ??MT_ZdoSimpleDescRequest?relay     6
     ??MT_ZdoActiveEpRequest?relay       6
     ??MT_ZdoMatchDescRequest?relay      6
     ??MT_ZdoComplexDescRequest?relay    6
     ??MT_ZdoUserDescRequest?relay       6
     ??MT_ZdoEndDevAnnce?relay           6
     ??MT_ZdoUserDescSet?relay           6
     ??MT_ZdoServiceDiscRequest?relay    6
     ??MT_ZdoEndDevBindRequest?relay     6
     ??MT_ZdoBindRequest?relay           6
     ??MT_ZdoUnbindRequest?relay         6
     ??MT_ZdoStartupFromApp?relay        6

 
 2 130 bytes in segment BANKED_CODE
   102 bytes in segment BANK_RELAYS
   104 bytes in segment XDATA_Z
 
 2 232 bytes of CODE  memory
   104 bytes of XDATA memory

Errors: none
Warnings: none
